Microchip MPLAB XC8 Compiler V1.33 ()

Linker command line:

-W-1 --edf=C:\Program Files (x86)\Microchip\xc8\v1.33\dat\en_msgs.txt -cs \
  -h+master.sym --cmf=master.cmf -z -Q18F6722 \
  -oC:\Users\micha\AppData\Local\Temp\s1q4.6 -Mmaster.map -E1 -ver=XC8 \
  -ASTACK=0A68h-0f5fh -pstack=STACK -ACODE=00h-01FFFFh -ACONST=00h-01FFFFh \
  -ASMALLCONST=01000h-010FFhx496 \
  -AMEDIUMCONST=01000h-0FFFFh,011000h-01FFFFh -ACOMRAM=01h-05Fh \
  -AABS1=00h-0F5Fh -ABIGRAM=01h-0F5Fh \
  -ARAM=060h-0FFh,0100h-01FFhx14,0F00h-0F5Fh -ABANK0=060h-0FFh \
  -ABANK1=0100h-01FFh -ABANK2=0200h-02FFh -ABANK3=0300h-03FFh \
  -ABANK4=0400h-04FFh -ABANK5=0500h-05FFh -ABANK6=0600h-06FFh \
  -ABANK7=0700h-07FFh -ABANK8=0800h-08FFh -ABANK9=0900h-09FFh \
  -ABANK10=0A00h-0AFFh -ABANK11=0B00h-0BFFh -ABANK12=0C00h-0CFFh \
  -ABANK13=0D00h-0DFFh -ABANK14=0E00h-0EFFh -ABANK15=0F00h-0F5Fh \
  -ASFR=0F60h-0FFFh \
  -preset_vec=00h,intcode=08h,intcodelo,powerup,init,end_init \
  -pramtop=01000h -psmallconst=SMALLCONST -pmediumconst=MEDIUMCONST \
  -pconst=CONST -AFARRAM=00h-00h -ACONFIG=0300000h-030000Dh -pconfig=CONFIG \
  -AIDLOC=0200000h-0200007h -pidloc=IDLOC -AEEDATA=0F00000h-0F003FFh \
  -peeprom_data=EEDATA \
  -prdata=COMRAM,nvrram=COMRAM,nvbit=COMRAM,rbss=COMRAM,rbit=COMRAM \
  -pfarbss=FARRAM,fardata=FARRAM,nvFARRAM=FARRAM \
  -pintsave_regs=BIGRAM,bigbss=BIGRAM,bigdata=BIGRAM -pbss=RAM \
  -pidata=CODE,irdata=CODE,ibigdata=CODE,ifardata=CODE \
  C:\Users\micha\AppData\Local\Temp\s1q4.obj master.obj 

Object code version is 3.11

Machine type is 18F6722

Call graph: (short form)




                Name                               Link     Load   Length Selector   Space Scale
C:\Users\micha\AppData\Local\Temp\s1q4.obj
                end_init                             18       18        4        4       0
                reset_vec                             0        0        4        0       0
                config                           300000   300000        A   300000       0
master.obj      intcode                               8        8       10        4       0
                mediumconst                        BEA0     BEA0     4160     5F50       0
                text185                            1F8C     1F8C       14        4       0
                text184                            1F78     1F78       14        4       0
                text183                            1EE0     1EE0       1A        4       0
                text182                            1B26     1B26       34        4       0
                text181                           1FFC4    1FFC4       3C     8000       0
                text180                            1F26     1F26       16        4       0
                text179                            1802     1802       40        4       0
                text178                            19E0     19E0       3A        4       0
                text177                           191AE    191AE      688     8000       0
                text176                            19A6     19A6       3A        4       0
                text175                           1F7DA    1F7DA       FA     8000       0
                text174                            196C     196C       3A        4       0
                text173                           19EBC    19EBC      66A     8000       0
                intcode_body                      1EBE2    1EBE2      148     8000       0
                text171                            13BC     13BC       4A        4       0
                text170                           1CFEC    1CFEC      214     8000       0
                text169                            203C     203C        2        4       0
                text168                           17390    17390      7F4     8000       0
                text167                           17B84    17B84      7DA     8000       0
                text166                            1AF2     1AF2       34        4       0
                text165                            17C2     17C2       40        4       0
                text164                            1F64     1F64       14        4       0
                text163                            1FDC     1FDC        E        4       0
                text162                            1E74     1E74       1E        4       0
                text161                           1E522    1E522      168     8000       0
                text160                            1FCE     1FCE        E        4       0
                text159                            1932     1932       3A        4       0
                text158                            1782     1782       40        4       0
                text157                            18F8     18F8       3A        4       0
                text156                            1742     1742       40        4       0
                text155                            18BE     18BE       3A        4       0
                text154                            1702     1702       40        4       0
                text153                            11A8     11A8       56        4       0
                text152                             68C      68C       8E        4       0
                text151                            1ABE     1ABE       34        4       0
                text150                            1FB0     1FB0       10        4       0
                text149                           1F4D2    1F4D2      104     8000       0
                text148                            1CFE     1CFE       26        4       0
                text147                              1C       1C       CC        4       0
                text146                           1D5EA    1D5EA      1EE     8000       0
                text145                             F84      F84       60        4       0
                text144                             DFC      DFC       66        4       0
                text143                            1F50     1F50       14        4       0
                text142                            1640     1640       42        4       0
                text141                            1E36     1E36       20        4       0
                text140                            1DF4     1DF4       22        4       0
                text139                            1DD2     1DD2       22        4       0
                text138                            1526     1526       48        4       0
                text137                            1E56     1E56       1E        4       0
                text136                            1CD8     1CD8       26        4       0
                text135                            1CB2     1CB2       26        4       0
                text134                            1EC6     1EC6       1A        4       0
                text133                            1EAC     1EAC       1A        4       0
                text132                            1DB0     1DB0       22        4       0
                text131                            1E92     1E92       1A        4       0
                text130                            201C     201C        6        4       0
                text129                            1D48     1D48       24        4       0
                text128                            1D8E     1D8E       22        4       0
                text127                             56C      56C       92        4       0
                text126                            1A88     1A88       36        4       0
                text125                            1D24     1D24       24        4       0
                text124                            1BE4     1BE4       2E        4       0
                text123                           1DB7E    1DB7E      1B0     8000       0
                text122                           1B90A    1B90A      494     8000       0
                text121                            1372     1372       4A        4       0
                text120                             43C      43C       9C        4       0
                text119                             A4C      A4C       82        4       0
                text118                            14DE     14DE       48        4       0
                text117                            2016     2016        6        4       0
                text116                           1F3CE    1F3CE      104     8000       0
                text115                           18B1C    18B1C      692     8000       0
                text114                             C3E      C3E       74        4       0
                text113                           1AA7C    1AA7C      4E0     8000       0
                text112                             D24      D24       72        4       0
                text111                            203A     203A        2        4       0
                text110                           1ED2A    1ED2A      13E     8000       0
                text109                           1FAB0    1FAB0       E8     8000       0
                text108                           1EF8E    1EF8E      122     8000       0
                text107                             CB2      CB2       72        4       0
                text106                           19836    19836      686     8000       0
                text105                           1AF5C    1AF5C      4DE     8000       0
                text104                           1F9C8    1F9C8       E8     8000       0
                text103                           168E2    168E2      AAE     8000       0
                text102                             BC8      BC8       76        4       0
                text101                            2038     2038        2        4       0
                text100                           1F2C6    1F2C6      108     8000       0
                text99                             1152     1152       56        4       0
                text98                             1FA0     1FA0       10        4       0
                text97                              8BE      8BE       88        4       0
                text96                             1D6C     1D6C       22        4       0
                text95                             1328     1328       4A        4       0
                text94                             12DE     12DE       4A        4       0
                text93                             2036     2036        2        4       0
                text92                             2034     2034        2        4       0
                text91                             1880     1880       3E        4       0
                text90                              2FA      2FA       A2        4       0
                text89                             1496     1496       48        4       0
                text88                              D96      D96       66        4       0
                text87                             109C     109C       5C        4       0
                text86                            1F0B0    1F0B0      10C     8000       0
                text85                             15FA     15FA       46        4       0
                text84                            1F6D8    1F6D8      102     8000       0
                text83                             1BB6     1BB6       2E        4       0
                text82                              832      832       8C        4       0
                text81                             2010     2010        6        4       0
                text80                             200A     200A        6        4       0
                text79                             202A     202A        4        4       0
                text78                             2026     2026        4        4       0
                text77                             2022     2022        4        4       0
                text76                             2004     2004        6        4       0
                text75                             1FFE     1FFE        6        4       0
                text74                             1FF8     1FF8        6        4       0
                text73                             1FF2     1FF2        6        4       0
                text72                            1D9C0    1D9C0      1BE     8000       0
                text71                            1D7D8    1D7D8      1E8     8000       0
                text70                              7A6      7A6       8C        4       0
                text69                             1C12     1C12       2A        4       0
                text68                               E8       E8       B6        4       0
                text67                            1E7F0    1E7F0      158     8000       0
                text66                              24E      24E       AC        4       0
                text65                             1A1A     1A1A       38        4       0
                text64                             1F3C     1F3C       14        4       0
                text63                            1C3BC    1C3BC      2A6     8000       0
                text62                              B4E      B4E       7A        4       0
                text61                            1CB68    1CB68      248     8000       0
                text60                             16C2     16C2       40        4       0
                text59                             1682     1682       40        4       0
                text58                            1D3FA    1D3FA      1F0     8000       0
                text57                              19E      19E       B0        4       0
                text56                             1FC0     1FC0        E        4       0
                text55                             1FEA     1FEA        8        4       0
                text54                            1E948    1E948      150     8000       0
                text53                            1F8D4    1F8D4       F4     8000       0
                text52                              71A      71A       8C        4       0
                text51                             2032     2032        2        4       0
                text50                            1E68A    1E68A      166     8000       0
                text49                             1842     1842       3E        4       0
                text48                              39C      39C       A0        4       0
                text47                             15B4     15B4       46        4       0
                text46                             1B88     1B88       2E        4       0
                text45                            1FEF6    1FEF6       CE     8000       0
                text44                            1FE28    1FE28       CE     8000       0
                text43                            1FD5A    1FD5A       CE     8000       0
                text42                             1294     1294       4A        4       0
                text41                             144E     144E       48        4       0
                text40                            1D200    1D200      1FA     8000       0
                text39                              4D8      4D8       94        4       0
                text38                              946      946       84        4       0
                text37                              F24      F24       60        4       0
                text36                            1E212    1E212      18A     8000       0
                text35                              9CA      9CA       82        4       0
                text34                             156E     156E       46        4       0
                text33                            158F0    158F0      FF2     8000       0
                text32                             1A52     1A52       36        4       0
                text31                            1E39C    1E39C      186     8000       0
                text30                            1DD2E    1DD2E      1AE     8000       0
                text29                            1F5D6    1F5D6      102     8000       0
                text28                             124A     124A       4A        4       0
                text27                             11FE     11FE       4C        4       0
                text26                             1F10     1F10       16        4       0
                text25                              ACE      ACE       80        4       0
                text24                            1EE68    1EE68      126     8000       0
                text23                            1C906    1C906      262     8000       0
                text22                             1EFA     1EFA       16        4       0
                text21                             1C64     1C64       28        4       0
                text20                            1FB98    1FB98       E6     8000       0
                text19                              5FE      5FE       8E        4       0
                text18                             1C8C     1C8C       26        4       0
                text17                            1C0F8    1C0F8      2C4     8000       0
                text16                            1F1BC    1F1BC      10A     8000       0
                text15                            1C662    1C662      2A4     8000       0
                text14                            1E078    1E078      19A     8000       0
                text13                            1A526    1A526      556     8000       0
                text12                            1BD9E    1BD9E      35A     8000       0
                text11                            1835E    1835E      7BE     8000       0
                text10                             2030     2030        2        4       0
                text9                             1CDB0    1CDB0      23C     8000       0
                text8                             1DEDC    1DEDC      19C     8000       0
                text7                             141CE    141CE     1722     8000       0
                text6                              1040     1040       5C        4       0
                text5                              1E16     1E16       20        4       0
                text4                               E62      E62       62        4       0
                text3                              1B5A     1B5A       2E        4       0
                text2                             1B43A    1B43A      4D0     8000       0
                text1                              10F8     10F8       5A        4       0
                text0                             10000    10000     41CE     8000       0
                cstackCOMRAM                         22       22       20        1       1
                cstackBANK0                          60       60       74       60       1
                cstackBANK1                         1BF      1BF       2C      100       1
                cstackBANK7                         7C8      7C8       37      700       1
                bssBANK10                           A00      A00       68      A00       1
                dataBANK9                           968      968       5C      900       1
                bssBANK9                            900      900       68      900       1
                bssBANK8                            800      800       E8      800       1
                dataBANK7                           768      768       60      700       1
                bssBANK7                            700      700       68      700       1
                dataBANK6                           600      600       DC      600       1
                dataBANK5                           58E      58E       48      500       1
                bssBANK5                            500      500       8E      500       1
                dataBANK4                           4D8      4D8       28      400       1
                bssBANK4                            400      400       D8      400       1
                bssBANK3                            300      300       F5      300       1
                bssBANK2                            200      200       FF      200       1
                dataBANK1                           1F4      1F4        2      100       1
                bssBANK1                            100      100       BF      100       1
                bssBANK0                             D4       D4       26       60       1
                bssCOMRAM                             1        1       21        1       1
                cinit                             1EA98    1EA98      14A     8000       0
                nvBANK1                             1EB      1EB        9      100       1
                idataBANK9                          FE4      FE4       5C        4       0
                idataBANK7                          EC4      EC4       60        4       0
                idataBANK6                        1FC7E    1FC7E       DC     8000       0
                idataBANK5                         1406     1406       48        4       0
                idataBANK4                         1C3C     1C3C       28        4       0
                idataBANK1                         202E     202E        2        4       0

TOTAL           Name                               Link     Load   Length     Space
        CLASS   STACK          

        CLASS   CODE           
                end_init                             18       18        4         0
                intcode                               8        8       10         0
                reset_vec                             0        0        4         0
                text185                            1F8C     1F8C       14         0
                text184                            1F78     1F78       14         0
                text183                            1EE0     1EE0       1A         0
                text182                            1B26     1B26       34         0
                text181                           1FFC4    1FFC4       3C         0
                text180                            1F26     1F26       16         0
                text179                            1802     1802       40         0
                text178                            19E0     19E0       3A         0
                text177                           191AE    191AE      688         0
                text176                            19A6     19A6       3A         0
                text175                           1F7DA    1F7DA       FA         0
                text174                            196C     196C       3A         0
                text173                           19EBC    19EBC      66A         0
                intcode_body                      1EBE2    1EBE2      148         0
                text171                            13BC     13BC       4A         0
                text170                           1CFEC    1CFEC      214         0
                text169                            203C     203C        2         0
                text168                           17390    17390      7F4         0
                text167                           17B84    17B84      7DA         0
                text166                            1AF2     1AF2       34         0
                text165                            17C2     17C2       40         0
                text164                            1F64     1F64       14         0
                text163                            1FDC     1FDC        E         0
                text162                            1E74     1E74       1E         0
                text161                           1E522    1E522      168         0
                text160                            1FCE     1FCE        E         0
                text159                            1932     1932       3A         0
                text158                            1782     1782       40         0
                text157                            18F8     18F8       3A         0
                text156                            1742     1742       40         0
                text155                            18BE     18BE       3A         0
                text154                            1702     1702       40         0
                text153                            11A8     11A8       56         0
                text152                             68C      68C       8E         0
                text151                            1ABE     1ABE       34         0
                text150                            1FB0     1FB0       10         0
                text149                           1F4D2    1F4D2      104         0
                text148                            1CFE     1CFE       26         0
                text147                              1C       1C       CC         0
                text146                           1D5EA    1D5EA      1EE         0
                text145                             F84      F84       60         0
                text144                             DFC      DFC       66         0
                text143                            1F50     1F50       14         0
                text142                            1640     1640       42         0
                text141                            1E36     1E36       20         0
                text140                            1DF4     1DF4       22         0
                text139                            1DD2     1DD2       22         0
                text138                            1526     1526       48         0
                text137                            1E56     1E56       1E         0
                text136                            1CD8     1CD8       26         0
                text135                            1CB2     1CB2       26         0
                text134                            1EC6     1EC6       1A         0
                text133                            1EAC     1EAC       1A         0
                text132                            1DB0     1DB0       22         0
                text131                            1E92     1E92       1A         0
                text130                            201C     201C        6         0
                text129                            1D48     1D48       24         0
                text128                            1D8E     1D8E       22         0
                text127                             56C      56C       92         0
                text126                            1A88     1A88       36         0
                text125                            1D24     1D24       24         0
                text124                            1BE4     1BE4       2E         0
                text123                           1DB7E    1DB7E      1B0         0
                text122                           1B90A    1B90A      494         0
                text121                            1372     1372       4A         0
                text120                             43C      43C       9C         0
                text119                             A4C      A4C       82         0
                text118                            14DE     14DE       48         0
                text117                            2016     2016        6         0
                text116                           1F3CE    1F3CE      104         0
                text115                           18B1C    18B1C      692         0
                text114                             C3E      C3E       74         0
                text113                           1AA7C    1AA7C      4E0         0
                text112                             D24      D24       72         0
                text111                            203A     203A        2         0
                text110                           1ED2A    1ED2A      13E         0
                text109                           1FAB0    1FAB0       E8         0
                text108                           1EF8E    1EF8E      122         0
                text107                             CB2      CB2       72         0
                text106                           19836    19836      686         0
                text105                           1AF5C    1AF5C      4DE         0
                text104                           1F9C8    1F9C8       E8         0
                text103                           168E2    168E2      AAE         0
                text102                             BC8      BC8       76         0
                text101                            2038     2038        2         0
                text100                           1F2C6    1F2C6      108         0
                text99                             1152     1152       56         0
                text98                             1FA0     1FA0       10         0
                text97                              8BE      8BE       88         0
                text96                             1D6C     1D6C       22         0
                text95                             1328     1328       4A         0
                text94                             12DE     12DE       4A         0
                text93                             2036     2036        2         0
                text92                             2034     2034        2         0
                text91                             1880     1880       3E         0
                text90                              2FA      2FA       A2         0
                text89                             1496     1496       48         0
                text88                              D96      D96       66         0
                text87                             109C     109C       5C         0
                text86                            1F0B0    1F0B0      10C         0
                text85                             15FA     15FA       46         0
                text84                            1F6D8    1F6D8      102         0
                text83                             1BB6     1BB6       2E         0
                text82                              832      832       8C         0
                text81                             2010     2010        6         0
                text80                             200A     200A        6         0
                text79                             202A     202A        4         0
                text78                             2026     2026        4         0
                text77                             2022     2022        4         0
                text76                             2004     2004        6         0
                text75                             1FFE     1FFE        6         0
                text74                             1FF8     1FF8        6         0
                text73                             1FF2     1FF2        6         0
                text72                            1D9C0    1D9C0      1BE         0
                text71                            1D7D8    1D7D8      1E8         0
                text70                              7A6      7A6       8C         0
                text69                             1C12     1C12       2A         0
                text68                               E8       E8       B6         0
                text67                            1E7F0    1E7F0      158         0
                text66                              24E      24E       AC         0
                text65                             1A1A     1A1A       38         0
                text64                             1F3C     1F3C       14         0
                text63                            1C3BC    1C3BC      2A6         0
                text62                              B4E      B4E       7A         0
                text61                            1CB68    1CB68      248         0
                text60                             16C2     16C2       40         0
                text59                             1682     1682       40         0
                text58                            1D3FA    1D3FA      1F0         0
                text57                              19E      19E       B0         0
                text56                             1FC0     1FC0        E         0
                text55                             1FEA     1FEA        8         0
                text54                            1E948    1E948      150         0
                text53                            1F8D4    1F8D4       F4         0
                text52                              71A      71A       8C         0
                text51                             2032     2032        2         0
                text50                            1E68A    1E68A      166         0
                text49                             1842     1842       3E         0
                text48                              39C      39C       A0         0
                text47                             15B4     15B4       46         0
                text46                             1B88     1B88       2E         0
                text45                            1FEF6    1FEF6       CE         0
                text44                            1FE28    1FE28       CE         0
                text43                            1FD5A    1FD5A       CE         0
                text42                             1294     1294       4A         0
                text41                             144E     144E       48         0
                text40                            1D200    1D200      1FA         0
                text39                              4D8      4D8       94         0
                text38                              946      946       84         0
                text37                              F24      F24       60         0
                text36                            1E212    1E212      18A         0
                text35                              9CA      9CA       82         0
                text34                             156E     156E       46         0
                text33                            158F0    158F0      FF2         0
                text32                             1A52     1A52       36         0
                text31                            1E39C    1E39C      186         0
                text30                            1DD2E    1DD2E      1AE         0
                text29                            1F5D6    1F5D6      102         0
                text28                             124A     124A       4A         0
                text27                             11FE     11FE       4C         0
                text26                             1F10     1F10       16         0
                text25                              ACE      ACE       80         0
                text24                            1EE68    1EE68      126         0
                text23                            1C906    1C906      262         0
                text22                             1EFA     1EFA       16         0
                text21                             1C64     1C64       28         0
                text20                            1FB98    1FB98       E6         0
                text19                              5FE      5FE       8E         0
                text18                             1C8C     1C8C       26         0
                text17                            1C0F8    1C0F8      2C4         0
                text16                            1F1BC    1F1BC      10A         0
                text15                            1C662    1C662      2A4         0
                text14                            1E078    1E078      19A         0
                text13                            1A526    1A526      556         0
                text12                            1BD9E    1BD9E      35A         0
                text11                            1835E    1835E      7BE         0
                text10                             2030     2030        2         0
                text9                             1CDB0    1CDB0      23C         0
                text8                             1DEDC    1DEDC      19C         0
                text7                             141CE    141CE     1722         0
                text6                              1040     1040       5C         0
                text5                              1E16     1E16       20         0
                text4                               E62      E62       62         0
                text3                              1B5A     1B5A       2E         0
                text2                             1B43A    1B43A      4D0         0
                text1                              10F8     10F8       5A         0
                text0                             10000    10000     41CE         0
                cinit                             1EA98    1EA98      14A         0
                idataBANK9                          FE4      FE4       5C         0
                idataBANK7                          EC4      EC4       60         0
                idataBANK6                        1FC7E    1FC7E       DC         0
                idataBANK5                         1406     1406       48         0
                idataBANK4                         1C3C     1C3C       28         0
                idataBANK1                         202E     202E        2         0

        CLASS   CONST          

        CLASS   SMALLCONST     

        CLASS   MEDIUMCONST    
                mediumconst                        BEA0     BEA0     4160         0

        CLASS   COMRAM         
                cstackCOMRAM                         22       22       20         1
                bssCOMRAM                             1        1       21         1

        CLASS   ABS1           

        CLASS   BIGRAM         

        CLASS   RAM            

        CLASS   BANK0          
                cstackBANK0                          60       60       74         1
                bssBANK0                             D4       D4       26         1

        CLASS   BANK1          
                cstackBANK1                         1BF      1BF       2C         1
                dataBANK1                           1F4      1F4        2         1
                bssBANK1                            100      100       BF         1
                nvBANK1                             1EB      1EB        9         1

        CLASS   BANK2          
                bssBANK2                            200      200       FF         1

        CLASS   BANK3          
                bssBANK3                            300      300       F5         1

        CLASS   BANK4          
                dataBANK4                           4D8      4D8       28         1
                bssBANK4                            400      400       D8         1

        CLASS   BANK5          
                dataBANK5                           58E      58E       48         1
                bssBANK5                            500      500       8E         1

        CLASS   BANK6          
                dataBANK6                           600      600       DC         1

        CLASS   BANK7          
                cstackBANK7                         7C8      7C8       37         1
                dataBANK7                           768      768       60         1
                bssBANK7                            700      700       68         1

        CLASS   BANK8          
                bssBANK8                            800      800       E8         1

        CLASS   BANK9          
                dataBANK9                           968      968       5C         1
                bssBANK9                            900      900       68         1

        CLASS   BANK10         
                bssBANK10                           A00      A00       68         1

        CLASS   BANK11         

        CLASS   BANK12         

        CLASS   BANK13         

        CLASS   BANK14         

        CLASS   BANK15         

        CLASS   SFR            

        CLASS   FARRAM         

        CLASS   CONFIG         
                config                           300000   300000        A         0

        CLASS   IDLOC          

        CLASS   EEDATA         



SEGMENTS        Name                           Load    Length   Top    Selector   Space  Class

                reset_vec                      000000  000004  000004         0       0  CODE    
                bssCOMRAM                      000001  000041  000042         1       1  COMRAM  
                intcode                        000008  002036  00203E         4       0  CODE    
                cstackBANK0                    000060  00009A  0000FA        60       1  BANK0   
                bssBANK1                       000100  0000F6  0001F6       100       1  BANK1   
                bssBANK2                       000200  0000FF  0002FF       200       1  BANK2   
                bssBANK3                       000300  0000F5  0003F5       300       1  BANK3   
                bssBANK4                       000400  000100  000500       400       1  BANK4   
                bssBANK5                       000500  0000D6  0005D6       500       1  BANK5   
                dataBANK6                      000600  0000DC  0006DC       600       1  BANK6   
                bssBANK7                       000700  0000FF  0007FF       700       1  BANK7   
                bssBANK8                       000800  0000E8  0008E8       800       1  BANK8   
                bssBANK9                       000900  0000C4  0009C4       900       1  BANK9   
                bssBANK10                      000A00  000068  000A68       A00       1  BANK10  
                mediumconst                    00BEA0  004160  010000      5F50       0  MEDIUMCO
                text0                          010000  010000  020000      8000       0  CODE    
                config                         300000  00000A  30000A    300000       0  CONFIG  


UNUSED ADDRESS RANGES

        Name                Unused          Largest block    Delta
        BANK0            0000FA-0000FF                6
        BANK1            0001F6-0001FF                A
        BANK10           000A68-000AFF               98
        BANK11           000B00-000BFF              100
        BANK12           000C00-000CFF              100
        BANK13           000D00-000DFF              100
        BANK14           000E00-000EFF              100
        BANK15           000F00-000F5F               60
        BANK2            0002FF-0002FF                1
        BANK3            0003F5-0003FF                B
        BANK5            0005D6-0005FF               2A
        BANK6            0006DC-0006FF               24
        BANK7            0007FF-0007FF                1
        BANK8            0008E8-0008FF               18
        BANK9            0009C4-0009FF               3C
        BIGRAM           000042-00005F               1E
                         0000FA-0000FF                6
                         0001F6-0001FF                A
                         0002FF-0002FF                1
                         0003F5-0003FF                B
                         0005D6-0005FF               2A
                         0006DC-0006FF               24
                         0007FF-0007FF                1
                         0008E8-0008FF               18
                         0009C4-0009FF               3C
                         000A68-000F5F              4F8
        CODE             000004-000007                4
                         00203E-00BE9F             9E62
        COMRAM           000042-00005F               1E
        CONFIG           30000A-30000D                4
        CONST            000004-000007                4
                         00203E-00BE9F             9E62
        EEDATA           F00000-F003FF              400
        IDLOC            200000-200007                8
        MEDIUMCONST      00203E-00BE9F             9E62
        RAM              0000FA-0000FF                6
                         0001F6-0001FF                A
                         0002FF-0002FF                1
                         0003F5-0003FF                B
                         0005D6-0005FF               2A
                         0006DC-0006FF               24
                         0007FF-0007FF                1
                         0008E8-0008FF               18
                         0009C4-0009FF               3C
                         000A68-000F5F              100
        SFR              000F60-000FFF               A0
        SMALLCONST       00203E-00BE9F              100
        STACK            000A68-000F5F              4F8

                                  Symbol Table

?_BatteryAverage                  cstackBANK0  000067
?_FeedPwm2Sec                     cstackBANK0  000060
?_GetMtrResponse                  cstackBANK0  000060
?_ReadCapture1                    cstackCOMRAM 000022
?_ReadCapture2                    cstackCOMRAM 000022
?_SpeedInRange                    cstackBANK0  000060
?___aldiv                         cstackBANK0  000060
?___awdiv                         cstackBANK0  000072
?___awmod                         cstackBANK0  000072
?___lldiv                         cstackBANK0  000060
?___lmul                          cstackBANK0  000060
?___lwdiv                         cstackBANK0  000060
?___lwmod                         cstackBANK0  000060
?___wmul                          cstackBANK0  000060
?_atoh                            cstackBANK0  000064
?_parse_next                      cstackBANK0  00007C
?_rand                            cstackBANK0  00006C
?_strchr                          cstackBANK0  000060
?_strlen                          cstackBANK0  000060
BatteryAverage@BatAvgVal          cstackBANK0  000073
BatteryAverage@i                  cstackBANK0  000075
BatteryAverage@j                  cstackBANK0  000071
BatteryAverage@maxVal             cstackBANK0  00006F
BatteryAverage@minVal             cstackBANK0  00006D
BatteryAverage@val                cstackBANK0  000067
BuildCmd@args                     cstackBANK0  000068
BuildCmd@checksum                 cstackBANK0  000073
BuildCmd@cnt                      cstackBANK0  000066
BuildCmd@code                     cstackBANK0  000064
BuildCmd@cptr                     cstackBANK0  000071
BuildCmd@i                        cstackBANK0  000074
BuildCmd@val                      cstackBANK0  00006D
CalcBotPwm@SpdDir                 cstackBANK0  00007A
CalcBotPwm@TooFast                cstackBANK0  000076
CalcBotPwm@abs_delta              cstackBANK0  00007E
CalcBotPwm@abs_delta1             cstackBANK0  000082
CalcBotPwm@delta                  cstackBANK0  000084
CalcBotPwm@drift                  cstackBANK0  000086
CalcBotPwm@drift1                 cstackBANK0  00007C
CalcBotPwm@incr                   cstackBANK0  000080
CalcBotPwm@ix                     cstackBANK0  000074
CalcBotPwm@rbot_last_delta        cstackBANK0  000072
CalcBotPwm@rbot_last_delta1       cstackBANK0  000078
CalcLimits@SpdLimit               cstackBANK0  00006A
CalcLimits@count                  cstackBANK0  000066
CalcLimits@i                      cstackBANK0  000070
CalcTopPwm@SpdDir                 cstackBANK0  000077
CalcTopPwm@TooFast                cstackBANK0  000073
CalcTopPwm@abs_delta              cstackBANK0  00007B
CalcTopPwm@abs_delta1             cstackBANK0  00007F
CalcTopPwm@delta                  cstackBANK0  000081
CalcTopPwm@drift                  cstackBANK0  000083
CalcTopPwm@drift1                 cstackBANK0  000079
CalcTopPwm@incr                   cstackBANK0  00007D
CalcTopPwm@ix                     cstackBANK0  000071
CalcTopPwm@rtop_last_delta        cstackBANK0  00006F
CalcTopPwm@rtop_last_delta1       cstackBANK0  000075
CheckBattery@val                  cstackBANK0  00007A
ChipDeSelect@dev                  cstackBANK0  000060
ChipReserve@dev                   cstackBANK0  000060
ChipSelect@dev                    cstackBANK0  000060
CurShot_diag@args                 cstackBANK0  000078
CurShot_diag@code                 cstackBANK0  000076
Delay10KTCYx@unit                 cstackBANK0  000061
Delay1KTCYx@unit                  cstackBANK0  000060
DisableSlaveSPI@c                 cstackBANK0  000077
DisableSlaveSPI@c1                cstackBANK0  000076
FeedPwm2Sec@feed                  cstackBANK0  000060
FeedPwm2Sec@i                     cstackBANK0  00006C
GetMtrResponse@rc                 cstackBANK0  000064
NxtShot_diag@args                 cstackBANK0  000078
NxtShot_diag@code                 cstackBANK0  000076
Open1USART@config                 cstackBANK0  000065
Open1USART@spbrg                  cstackBANK0  000060
Open2USART@config                 cstackBANK0  000065
Open2USART@spbrg                  cstackBANK0  000060
OpenCapture1@config               cstackBANK0  000060
OpenCapture2@ccp2mx               cstackBANK0  000061
OpenCapture2@config               cstackBANK0  000062
OpenPWM3@period                   cstackBANK0  000060
OpenPWM4@period                   cstackBANK0  000060
OpenPWM5@period                   cstackBANK0  000060
OpenSPI1@bus_mode                 cstackBANK0  000060
OpenSPI1@smp_phase                cstackBANK0  000061
OpenSPI1@sync_mode                cstackBANK0  000062
OpenTimer0@config                 cstackBANK0  000060
OpenTimer1@config                 cstackBANK0  000060
OpenTimer3@config                 cstackBANK0  000060
OpenTimer4@config                 cstackBANK0  000060
OpenXLCD@lcdtype                  cstackBANK0  000062
PL10                              text0        01393E
PL100                             text7        015640
PL102                             text11       018A9A
PL104                             text0        013B9C
PL106                             text0        013BAE
PL108                             text170      01D1A0
PL110                             text12       01C018
PL112                             text0        013BCA
PL114                             text0        013BD8
PL116                             text7        015650
PL118                             text33       01669A
PL12                              text0        01396C
PL120                             text14       01E1E2
PL122                             text7        015660
PL124                             text12       01C02C
PL126                             text33       0166BC
PL128                             text33       0166D8
PL130                             text7        01566E
PL132                             text24       01EF16
PL134                             text33       0166EE
PL136                             text0        013C6A
PL138                             text33       01671A
PL14                              text0        01397A
PL140                             text7        015684
PL142                             text12       01C056
PL144                             text33       016758
PL146                             text11       018AA8
PL148                             text7        015692
PL150                             text11       018ABE
PL152                             text7        0156A0
PL154                             text33       016774
PL156                             text12       01C074
PL158                             text0        013C96
PL16                              text0        01399A
PL160                             text7        0156B0
PL162                             text122      01BD42
PL164                             text7        0156CA
PL166                             text103      017260
PL168                             text0        013CDA
PL170                             text7        0156E6
PL172                             text33       01678A
PL174                             text13       01A9BE
PL176                             text23       01CB3C
PL178                             text0        013D0A
PL18                              text0        0139AE
PL180                             text7        0156F4
PL182                             text11       018AD2
PL184                             text103      01727C
PL186                             text0        013D5C
PL188                             text7        01570A
PL190                             text0        013D6C
PL192                             text8        01E04A
PL194                             text0        013D7C
PL196                             text0        013D92
PL198                             text17       01C322
PL2                               text0        01382E
PL20                              text0        0139CC
PL200                             text58       01D596
PL202                             text0        013DBC
PL204                             text0        013DCE
PL206                             text177      0196EA
PL208                             text106      019D80
PL210                             text115      019072
PL212                             text173      01A3DA
PL214                             text40       01D3AC
PL216                             text177      0196FE
PL218                             text173      01A3EE
PL22                              text146      01D7B0
PL220                             text115      019086
PL222                             text20       01FC6E
PL224                             text106      019D94
PL226                             text50       01E7BC
PL228                             text170      01D1BC
PL230                             text40       01D3C8
PL232                             text8        01E06A
PL234                             text177      01971A
PL236                             text173      01A40A
PL238                             text115      0190A2
PL24                              text0        0139EE
PL240                             text106      019DB0
PL242                             text45       01FFA2
PL244                             text7        01571A
PL246                             text44       01FED4
PL248                             text7        01572A
PL250                             text43       01FE06
PL252                             text0        013DE8
PL254                             text0        013DF2
PL256                             text0        013E06
PL258                             text13       01A9CE
PL26                              text0        0139FE
PL260                             text40       01D3E2
PL262                             text7        01574C
PL264                             text103      01728C
PL266                             text103      0172AC
PL268                             text116      01F48E
PL270                             text58       01D5C4
PL272                             text167      018286
PL274                             text168      017A9A
PL276                             text33       01679A
PL278                             text103      0172BA
PL28                              text0        013A1C
PL280                             text122      01BD66
PL282                             text0        013E14
PL284                             text33       0167B8
PL286                             text33       0167CE
PL288                             text7        01576C
PL290                             text0        013E1C
PL292                             text33       0167E4
PL294                             text0        013E32
PL296                             text33       0167F6
PL298                             text0        013E44
PL30                              text0        013A2A
PL300                             text168      017AB8
PL302                             text167      0182A4
PL304                             text103      0172D0
PL306                             text13       01A9E6
PL308                             text103      0172DE
PL310                             text0        013E56
PL312                             text17       01C36E
PL314                             text0        013E6A
PL316                             text7        015782
PL318                             text17       01C382
PL32                              text7        0155A4
PL320                             text0        013E7E
PL322                             text0        013E8E
PL324                             text12       01C096
PL326                             text17       01C39C
PL328                             text0        013E9E
PL330                             text33       016808
PL332                             text173      01A42C
PL334                             text7        01579C
PL336                             text177      01973C
PL338                             text122      01BD7C
PL34                              text7        0155BA
PL340                             text168      017AD4
PL342                             text0        013EAA
PL344                             text7        0157B4
PL346                             text17       01C3AA
PL348                             text0        013EBC
PL350                             text9        01CFCA
PL352                             text86       01F1AA
PL354                             text71       01D98A
PL356                             text103      01730E
PL358                             text33       016818
PL36                              text11       018A28
PL360                             text115      0190C4
PL362                             text113      01AF0E
PL364                             text105      01B3EC
PL366                             text106      019DD2
PL368                             text113      01AF32
PL370                             text13       01AA16
PL372                             text0        013EE4
PL374                             text11       018AFE
PL376                             text105      01B410
PL378                             text167      0182C0
PL38                              text33       016662
PL380                             text63       01C620
PL382                             text168      017AE4
PL384                             text33       01683C
PL386                             text31       01E4FA
PL388                             text0        013EF2
PL390                             text0        013F02
PL392                             text30       01DEB4
PL394                             text0        013F12
PL396                             text0        013F24
PL398                             text0        013F38
PL4                               text0        01386E
PL40                              text33       01668A
PL400                             text168      017B06
PL402                             text167      0182E2
PL404                             text12       01C0A6
PL406                             text0        013F58
PL408                             text7        0157C6
PL410                             text12       01C0C2
PL412                             text167      018300
PL414                             text7        0157D8
PL416                             text168      017B26
PL418                             text33       01684A
PL42                              text0        013A3A
PL420                             text33       01685C
PL422                             text167      018312
PL424                             text168      017B38
PL426                             text0        013F6A
PL428                             text177      019754
PL430                             text33       01686E
PL432                             text173      01A444
PL434                             text58       01D5CE
PL436                             text122      01BD90
PL438                             text106      019DF6
PL44                              text0        013A7C
PL440                             text13       01AA24
PL442                             text114      000C98
PL444                             text103      017332
PL446                             text116      01F4A0
PL448                             text106      019E10
PL450                             text115      0190E8
PL452                             text7        0157EA
PL454                             text61       01CD86
PL456                             text103      01734C
PL458                             text177      019770
PL46                              text7        0155C4
PL460                             text173      01A460
PL462                             text88       000DE2
PL464                             text7        015804
PL466                             text103      017366
PL468                             text115      019102
PL470                             text14       01E1F6
PL472                             text13       01AA3E
PL474                             text14       01E204
PL476                             text0        013F7A
PL478                             text50       01E7CC
PL48                              text0        013A8A
PL480                             text9        01CFDC
PL482                             text0        013F88
PL484                             text0        013F98
PL486                             text103      017380
PL488                             text30       01DECC
PL490                             text0        013FA8
PL492                             text7        01581E
PL494                             text15       01C8E6
PL496                             text0        013FBC
PL498                             text0        013FCC
PL50                              text7        0155DE
PL500                             text11       018B0C
PL502                             text31       01E512
PL504                             text116      01F4BA
PL506                             text54       01EA6E
PL508                             text7        01582E
PL510                             text2        01B8E6
PL512                             text13       01AA58
PL514                             text0        013FDC
PL516                             text0        013FF4
PL518                             text0        01400C
PL52                              text0        013A98
PL520                             text0        014024
PL522                             text168      017B4A
PL524                             text0        01403C
PL526                             text167      018324
PL528                             text0        014054
PL530                             text106      019E2A
PL532                             text12       01C0D2
PL534                             text177      01978A
PL536                             text173      01A47A
PL538                             text147      0000B8
PL54                              text0        013AA8
PL540                             text173      01A490
PL542                             text115      01911C
PL544                             text177      0197A0
PL546                             text106      019E40
PL548                             text167      01833C
PL550                             text126      001AB0
PL552                             text0        01406A
PL554                             text161      01E66C
PL556                             text0        01407A
PL558                             text115      019132
PL56                              text7        0155FE
PL560                             text23       01CB4A
PL562                             text168      017B62
PL564                             text54       01EA86
PL566                             text33       01687C
PL568                             text63       01C642
PL570                             text173      01A4A6
PL572                             text36       01E378
PL574                             text106      019E4C
PL576                             text177      0197B6
PL578                             text115      01913E
PL58                              text0        013AB6
PL580                             text7        015846
PL582                             text0        014088
PL584                             text0        01409A
PL586                             text106      019E5E
PL588                             text115      019150
PL590                             text50       01E7DE
PL592                             text173      01A4B8
PL594                             text115      019162
PL596                             text0        0140AC
PL598                             text0        0140BE
PL6                               text0        0138B0
PL60                              text0        013AC2
PL600                             text36       01E38A
PL602                             text106      019E70
PL604                             text33       016890
PL606                             text170      01D1D6
PL608                             text177      0197C8
PL610                             text7        015854
PL612                             text7        015866
PL614                             text147      0000CE
PL616                             text168      017B70
PL618                             text167      01834A
PL62                              text113      01AEA8
PL620                             text61       01CDA0
PL622                             text115      019174
PL624                             text177      0197DA
PL626                             text0        0140D0
PL628                             text12       01C0E8
PL630                             text33       0168A2
PL632                             text15       01C8F6
PL634                             text0        0140E0
PL636                             text106      019E82
PL638                             text29       01F6C8
PL64                              text105      01B386
PL640                             text106      019E92
PL642                             text173      01A4CA
PL644                             text0        0140F0
PL646                             text0        014100
PL648                             text105      01B41C
PL650                             text0        014110
PL652                             text173      01A4DA
PL654                             text173      01A4EA
PL656                             text23       01CB58
PL658                             text90       00037C
PL66                              text13       01A9AE
PL660                             text7        015878
PL662                             text115      019184
PL664                             text113      01AF3E
PL666                             text7        015888
PL668                             text177      0197EA
PL670                             text0        014120
PL672                             text106      019EA2
PL674                             text72       01DB60
PL676                             text0        014130
PL678                             text90       00038C
PL68                              text0        013AFC
PL680                             text173      01A4FA
PL682                             text146      01D7C8
PL684                             text7        015898
PL686                             text177      0197FA
PL688                             text71       01D9B0
PL690                             text147      0000D8
PL692                             text177      01980A
PL694                             text115      019194
PL696                             text161      01E67A
PL698                             text167      018356
PL70                              text20       01FC0C
PL700                             text168      017B7C
PL702                             text7        0158A8
PL704                             text170      01D1E8
PL706                             text7        0158B6
PL708                             text0        014140
PL710                             text13       01AA6E
PL712                             text7        0158C4
PL714                             text0        01414E
PL716                             text109      01FB8A
PL718                             text113      01AF4E
PL72                              text0        013B24
PL720                             text110      01EE5A
PL722                             text72       01DB70
PL724                             text0        01415C
PL726                             text63       01C64C
PL728                             text7        0158D0
PL730                             text0        01416A
PL732                             text0        014178
PL734                             text0        014186
PL736                             text108      01F0A2
PL738                             text7        0158DA
PL74                              text0        013B40
PL740                             text0        014194
PL742                             text0        0141A2
PL744                             text105      01B42C
PL746                             text2        01B8FC
PL748                             text173      01A50A
PL750                             text63       01C65A
PL752                             text0        0141B0
PL754                             text170      01D1F6
PL756                             text177      01981A
PL758                             text149      01F5C4
PL76                              text105      01B3AA
PL760                             text173      01A512
PL762                             text115      0191A4
PL764                             text33       0168B2
PL766                             text106      019EB2
PL768                             text177      019822
PL770                             text0        0141BA
PL772                             text149      01F5CE
PL774                             text0        0141C4
PL776                             text33       0168BC
PL778                             text177      01982C
PL78                              text113      01AECC
PL780                             text33       0168C2
PL782                             text173      01A51C
PL784                             text33       0168C8
PL786                             text7        0158E8
PL788                             text33       0168CE
PL790                             text33       0168D4
PL792                             text33       0168DC
PL8                               text0        0138F8
PL80                              text7        01560C
PL82                              text20       01FC3A
PL84                              text0        013B80
PL86                              text11       018A5C
PL88                              text7        015632
PL90                              text0        013B8E
PL92                              text113      01AEDE
PL94                              text105      01B3BC
PL96                              text113      01AEF6
PL98                              text105      01B3D4
PgaGain@chan                      cstackBANK0  000064
PgaGain@gain                      cstackBANK0  000066
Read1USART@data                   cstackBANK0  000060
Read2USART@data                   cstackBANK0  000060
ReadCapture1@Cap                  cstackCOMRAM 000024
ReadCapture2@Cap                  cstackCOMRAM 000024
RemoteSaveDrill@i                 cstackBANK0  000086
RemoteSaveDrill@j                 cstackBANK0  000085
SEERead@addr                      cstackBANK0  000064
SEERead@data                      cstackBANK0  000069
SEEWrite@addr                     cstackBANK0  000064
SEEWrite@data                     cstackBANK0  000066
SEEWrite@status                   cstackBANK0  00006A
SetBotPwm@delta                   cstackBANK0  000077
SetBotPwm@drift                   cstackBANK0  000071
SetBotPwm@drift1                  cstackBANK0  00006F
SetBotPwm@i                       cstackBANK0  000075
SetBotPwm@incr                    cstackBANK0  000073
SetDCPWM3@DCycle                  cstackBANK0  000064
SetDCPWM3@dutycycle               cstackBANK0  000060
SetDCPWM4@DCycle                  cstackBANK0  000064
SetDCPWM4@dutycycle               cstackBANK0  000060
SetDCPWM5@DCycle                  cstackBANK0  000064
SetDCPWM5@dutycycle               cstackBANK0  000060
SetDDRamAddr@DDaddr               cstackBANK0  000060
SetFeedImm@feedpwm                cstackBANK0  000063
SetFeedRate@feedpwm               cstackBANK0  000060
SetTopPwm@delta                   cstackBANK0  000077
SetTopPwm@drift                   cstackBANK0  000071
SetTopPwm@drift1                  cstackBANK0  00006F
SetTopPwm@i                       cstackBANK0  000075
SetTopPwm@incr                    cstackBANK0  000073
Setup@ix                          cstackBANK0  000078
SlowFeedMtr@flag                  cstackBANK0  000066
StartBot@delta                    cstackBANK0  000092
StartBot@ix                       cstackBANK0  000094
StartBot@val                      cstackBANK0  00007A
StartElevRandom@arg               cstackBANK0  000091
StartElevRandom@limit_bot         cstackBANK0  000083
StartElevRandom@limit_top         cstackBANK0  000081
StartElevRandom@speed             cstackBANK0  00007F
StartFeed@ptr                     cstackBANK0  00006D
StartFeedCont@feedpwm             cstackBANK0  000064
StartSweepRandom@arg              cstackBANK0  000091
StartSweepRandom@limit_l          cstackBANK0  000083
StartSweepRandom@limit_r          cstackBANK0  000081
StartSweepRandom@speed            cstackBANK0  00007F
StartTop@delta                    cstackBANK0  000092
StartTop@ix                       cstackBANK0  000094
StartTop@val                      cstackBANK0  00007A
StopBotMtr@ptr                    cstackBANK0  000068
StopFeedMtr@ptr                   cstackBANK0  000068
StopTopMtr@ptr                    cstackBANK0  000068
SvcShots@StartXTime               bssBANK1     000106
SvcShots@arg                      cstackBANK0  0000A5
SvcShots@curx                     cstackBANK0  00009F
SvcShots@delta                    cstackBANK0  0000A1
SvcShots@feed_rate_hs             bssBANK2     00022A
SvcShots@lastx                    cstackBANK0  00009D
UpdTopPer@top_delta1              cstackBANK0  000066
Write2USART@data                  cstackBANK0  000060
WriteCmdXLCD@cmd                  cstackBANK0  000060
WriteDataXLCD@data                cstackBANK0  000060
WriteSPI1@data_out                cstackBANK0  000060
_ADCON0                           (abs)        000FC2
_ADCON0bits                       (abs)        000FC2
_ADCON1                           (abs)        000FC1
_ADCON2                           (abs)        000FC0
_ADRESH                           (abs)        000FC4
_ADRESL                           (abs)        000FC3
_Advanced_locs                    mediumconst  00EC32
_BAT_CurSenseCt                   bssBANK1     000160
_BAT_TripPoint                    bssBANK2     000265
_BAT_TripTime                     bssBANK2     000267
_BAT_lastval                      bssBANK2     000269
_BDM_CurSenseCt                   bssBANK2     000256
_BDM_CurSenseCt_H                 bssBANK2     000259
_BDM_TripPoint                    bssBANK2     000200
_BDM_TripPoint_H                  bssBANK2     000206
_BDM_TripTime                     bssBANK2     00020C
_BDM_TripTime_H                   bssBANK2     000212
_BallElapsedHalfSec               bssBANK0     0000D4
_BallElapsedTicks                 bssBANK1     000161
_BallTimerOn                      bssBANK1     000162
_BatAvg                           bssBANK4     000400
_BatAvgCnt                        bssBANK1     000163
_BatLevelDisplay                  bssBANK1     000164
_BatLevelDisplayTmr               bssBANK1     000165
_BatPercent                       bssBANK2     00026B
_BatteryAverage                   text170      01CFEC
_Beginner_locs                    mediumconst  00EC6E
_BotSpdLimit                      bssBANK2     0002EF
_BuildCmd                         text161      01E522
_BusyXLCD                         text132      001DB0
_CCP1CON                          (abs)        000FBD
_CCP2CON                          (abs)        000FBA
_CCP3CON                          (abs)        000FB7
_CCP4CON                          (abs)        000F73
_CCP5CON                          (abs)        000F70
_CCPR1H                           (abs)        000FBF
_CCPR1L                           (abs)        000FBE
_CCPR2H                           (abs)        000FBC
_CCPR2L                           (abs)        000FBB
_CCPR3L                           (abs)        000FB8
_CCPR4L                           (abs)        000F74
_CCPR5L                           (abs)        000F71
_CalcBotPwm                       text168      017390
_CalcBotPwm$2391                  cstackBANK0  000068
_CalcBotPwm$2392                  cstackBANK0  000070
_CalcBotPwm$2393                  cstackBANK0  00006C
_CalcLimits                       text116      01F3CE
_CalcTopPwm                       text167      017B84
_CalcTopPwm$2368                  cstackBANK0  000065
_CalcTopPwm$2369                  cstackBANK0  00006D
_CalcTopPwm$2370                  cstackBANK0  000069
_CheckBattery                     text153      0011A8
_ChipDeSelect                     text166      001AF2
_ChipReserve                      text150      001FB0
_ChipSelect                       text165      0017C2
_CloseCapture1                    text81       002010
_CloseCapture2                    text80       00200A
_ClosePWM3                        text79       00202A
_ClosePWM4                        text78       002026
_ClosePWM5                        text77       002022
_CloseTimer0                      text76       002004
_CloseTimer1                      text75       001FFE
_CloseTimer3                      text74       001FF8
_CloseTimer4                      text73       001FF2
_CurSense                         mediumconst  00C275
_CurSenseCt                       bssBANK5     000500
_CurShot                          bssBANK1     00019C
_CurShotState                     bssBANK1     00012C
_CurShot_diag                     text58       01D3FA
_DbgFeedType                      bssBANK2     00022E
_Delay10KTCYx                     text131      001E92
_Delay1KTCYx                      text164      001F64
_DelayFor18TCY                    text133      001EAC
_DelayPORXLCD                     text130      00201C
_DiagBuf                          bssBANK5     00052E
_DisableSlaveSPI                  text152      00068C
_DoDebug                          bssBANK1     000166
_ELEV_CORR_MIN                    bssBANK1     00012E
_EnableSlaveSPI                   text151      001ABE
_ErrorShutDown                    bssBANK0     0000F2
_ErrorStat                        bssCOMRAM    000019
_FeedEarlyOn                      bssBANK1     000167
_FeedMtrDone                      text88       000D96
_FeedPwm2Sec                      text120      00043C
_FeedStartTbl                     mediumconst  00EB4A
_FeedTimeoutOn                    bssBANK1     000168
_FirstShot                        bssBANK1     000169
_FlashBuf                         bssBANK8     000868
_ForceShot                        text55       001FEA
_GetMtrResponse                   text119      000A4C
_INTCON2bits                      (abs)        000FF1
_INTCONbits                       (abs)        000FF2
_Intermediate_locs                mediumconst  00ECAA
_InvCmd                           mediumconst  00F003
_LATAbits                         (abs)        000F89
_LargeSpdDrop                     bssBANK1     00016A
_LargeSpdDropCnt                  bssBANK1     00016B
_LastShot                         bssBANK3     0003E5
_LastSlaveCmd                     bssBANK1     00016C
_Lefty_locs                       mediumconst  00ECE6
_MINPWM                           bssBANK0     0000D8
_Moonballer_locs                  mediumconst  00ED22
_MtrResponse                      text56       001FC0
_NextShot                         bssBANK2     0002CF
_NxtShot_diag                     text57       00019E
_Open1USART                       text145      000F84
_Open2USART                       text144      000DFC
_OpenCapture1                     text143      001F50
_OpenCapture2                     text142      001640
_OpenPWM3                         text141      001E36
_OpenPWM4                         text140      001DF4
_OpenPWM5                         text139      001DD2
_OpenSPI1                         text138      001526
_OpenTimer0                       text137      001E56
_OpenTimer1                       text136      001CD8
_OpenTimer3                       text135      001CB2
_OpenTimer4                       text134      001EC6
_OpenXLCD                         text127      00056C
_PIE1                             (abs)        000F9D
_PIE1bits                         (abs)        000F9D
_PIE2bits                         (abs)        000FA0
_PIE3                             (abs)        000FA3
_PIE3bits                         (abs)        000FA3
_PIR1bits                         (abs)        000F9E
_PIR2bits                         (abs)        000FA1
_PIR3bits                         (abs)        000FA4
_PORTA                            (abs)        000F80
_PORTAbits                        (abs)        000F80
_PORTB                            (abs)        000F81
_PORTBbits                        (abs)        000F81
_PORTC                            (abs)        000F82
_PORTCbits                        (abs)        000F82
_PORTD                            (abs)        000F83
_PORTDbits                        (abs)        000F83
_PORTE                            (abs)        000F84
_PORTF                            (abs)        000F85
_PORTG                            (abs)        000F86
_PR2                              (abs)        000FCB
_PR4                              (abs)        000F77
_PgaGain                          text94       0012DE
_PlayLEDPass                      bssBANK1     0001BB
_PlayLEDTmr                       bssBANK1     00016D
_PlayModeBlink                    bssBANK2     0002F3
_RCREG1                           (abs)        000FAE
_RCREG2                           (abs)        000F6E
_RCSTA1                           (abs)        000FAB
_RCSTA1bits                       (abs)        000FAB
_RCSTA2                           (abs)        000F6B
_RCSTA2bits                       (abs)        000F6B
_Read1USART                       text98       001FA0
_Read2USART                       text96       001D6C
_ReadCapture1                     text185      001F8C
_ReadCapture2                     text184      001F78
_ReadSPI1                         text163      001FDC
_RemoteDataCnt                    bssBANK1     00016E
_RemoteDataReceived               bssBANK1     00016F
_RemotePgmFeed                    bssBANK2     000218
_RemotePgmLocn                    bssBANK1     000100
_RemotePgmMethod                  bssBANK3     000340
_RemotePgmMode                    bssBANK1     000130
_RemotePgmShot                    bssBANK1     000170
_RemotePgmSpeed                   bssBANK2     00021E
_RemotePgmSpin                    bssBANK2     000224
_RemoteSaveDrill                  text146      01D5EA
_RemoteString                     bssBANK2     00028B
_RemoteStringVar                  bssBANK1     0001AC
_SEERead                          text89       001496
_SEEWrite                         text149      01F4D2
_SPBRG1                           (abs)        000FAF
_SPBRG2                           (abs)        000F6F
_SPBRGH1                          (abs)        000F7F
_SPBRGH2                          (abs)        000F7D
_SSP1BUF                          (abs)        000FC9
_SSP1CON1                         (abs)        000FC6
_SSP1CON1bits                     (abs)        000FC6
_SSP1STAT                         (abs)        000FC7
_SSP1STATbits                     (abs)        000FC7
_STKPTRbits                       (abs)        000FFC
_SetBotPwm                        text115      018B1C
_SetDCPWM3                        text157      0018F8
_SetDCPWM4                        text155      0018BE
_SetDCPWM5                        text159      001932
_SetDDRamAddr                     text129      001D48
_SetFeedImm                       text87       00109C
_SetFeedPwm                       text86       01F0B0
_SetFeedRate                      text118      0014DE
_SetTopPwm                        text106      019836
_Setup                            text122      01B90A
_SlaveCmd                         bssBANK5     00054E
_SlaveCmdOfs                      bssBANK1     000171
_SlaveMotorStatus                 bssBANK1     000172
_SlaveRes                         bssBANK5     00056E
_SlaveResOfs                      bssBANK1     000173
_Slicer_locs                      mediumconst  00ED5E
_SlowFeedMtr                      text114      000C3E
_SlvCmdDelay                      bssBANK1     000132
_SlvTimeOut                       text117      002016
_SpeedInRange                     text121      001372
_SpiLock                          bssBANK1     000174
_StartBot                         text113      01AA7C
_StartBot$2955                    cstackBANK0  000082
_StartBot$2957                    cstackBANK0  000084
_StartBot$2959                    cstackBANK0  000086
_StartBot$2961                    cstackBANK0  000088
_StartBot$2963                    cstackBANK0  00008A
_StartBot$2965                    cstackBANK0  00008C
_StartBot$2967                    cstackBANK0  00008E
_StartBot$2969                    cstackBANK0  000090
_StartElevRandom                  text112      000D24
_StartFeed                        text110      01ED2A
_StartFeed$2895                   cstackBANK0  000069
_StartFeed$2896                   cstackBANK0  00006B
_StartFeedAtSpd                   text109      01FAB0
_StartFeedAtSpd$2900              cstackBANK0  000069
_StartFeedAtSpd$2901              cstackBANK0  00006B
_StartFeedCont                    text108      01EF8E
_StartFeedCont$2909               cstackBANK0  00006D
_StartFeedCont$2910               cstackBANK0  00006F
_StartSweepRandom                 text107      000CB2
_StartTop                         text105      01AF5C
_StartTop$2921                    cstackBANK0  000082
_StartTop$2923                    cstackBANK0  000084
_StartTop$2925                    cstackBANK0  000086
_StartTop$2927                    cstackBANK0  000088
_StartTop$2929                    cstackBANK0  00008A
_StartTop$2931                    cstackBANK0  00008C
_StartTop$2933                    cstackBANK0  00008E
_StartTop$2935                    cstackBANK0  000090
_StopBidirMtrs                    text160      001FCE
_StopBotMtr                       text158      001782
_StopFeedMtr                      text156      001742
_StopTopMtr                       text154      001702
_SvcShots                         text103      0168E2
_T0CON                            (abs)        000FD5
_T0CONbits                        (abs)        000FD5
_T1CON                            (abs)        000FCD
_T1CONbits                        (abs)        000FCD
_T2CONbits                        (abs)        000FCA
_T3CON                            (abs)        000FB1
_T3CONbits                        (abs)        000FB1
_T4CON                            (abs)        000F76
_T4CONbits                        (abs)        000F76
_TMR0H                            (abs)        000FD7
_TMR0L                            (abs)        000FD6
_TMR1H                            (abs)        000FCF
_TMR1L                            (abs)        000FCE
_TMR3H                            (abs)        000FB3
_TMR3L                            (abs)        000FB2
_TMR4                             (abs)        000F78
_TRISA                            (abs)        000F92
_TRISAbits                        (abs)        000F92
_TRISB                            (abs)        000F93
_TRISC                            (abs)        000F94
_TRISCbits                        (abs)        000F94
_TRISD                            (abs)        000F95
_TRISE                            (abs)        000F96
_TRISEbits                        (abs)        000F96
_TRISF                            (abs)        000F97
_TRISFbits                        (abs)        000F97
_TRISG                            (abs)        000F98
_TRISGbits                        (abs)        000F98
_TXREG2                           (abs)        000F6D
_TXSTA1                           (abs)        000FAC
_TXSTA1bits                       (abs)        000FAC
_TXSTA2                           (abs)        000F6C
_TXSTA2bits                       (abs)        000F6C
_TickIntCnt                       bssBANK2     00026D
_TopSpdLimit                      bssBANK2     0002F7
_UDrillShots                      bssBANK1     000175
_USART2_Status                    bssBANK1     000176
_UpdBotPer                        text91       001880
_UpdTopPer                        text72       01D9C0
_WDTCONbits                       (abs)        000FD1
_Write2USART                      text22       001EFA
_WriteCmdXLCD                     text128      001D8E
_WriteDataXLCD                    text5        001E16
_WriteSPI1                        text162      001E74
__CFG_BOREN$SBORDIS               (abs)        000000
__CFG_BORV$2                      (abs)        000000
__CFG_CCP2MX$PORTC                (abs)        000000
__CFG_CP0$ON                      (abs)        000000
__CFG_CP1$ON                      (abs)        000000
__CFG_CP2$ON                      (abs)        000000
__CFG_CP3$ON                      (abs)        000000
__CFG_CP4$ON                      (abs)        000000
__CFG_CP5$ON                      (abs)        000000
__CFG_CP6$ON                      (abs)        000000
__CFG_CP7$ON                      (abs)        000000
__CFG_CPB$ON                      (abs)        000000
__CFG_LVP$OFF                     (abs)        000000
__CFG_MCLRE$OFF                   (abs)        000000
__CFG_OSC$HSPLL                   (abs)        000000
__CFG_STVREN$ON                   (abs)        000000
__CFG_WDT$OFF                     (abs)        000000
__CFG_WDTPS$2048                  (abs)        000000
__HRAM                            (abs)        000000
__Habs1                           abs1         000000
__Hbank0                          bank0        000000
__Hbank1                          bank1        000000
__Hbank10                         bank10       000000
__Hbank11                         bank11       000000
__Hbank12                         bank12       000000
__Hbank13                         bank13       000000
__Hbank14                         bank14       000000
__Hbank15                         bank15       000000
__Hbank2                          bank2        000000
__Hbank3                          bank3        000000
__Hbank4                          bank4        000000
__Hbank5                          bank5        000000
__Hbank6                          bank6        000000
__Hbank7                          bank7        000000
__Hbank8                          bank8        000000
__Hbank9                          bank9        000000
__Hbigbss                         bigbss       000000
__Hbigdata                        bigdata      000000
__Hbigram                         bigram       000000
__Hbss                            bss          000000
__HbssBANK0                       bssBANK0     000000
__HbssBANK1                       bssBANK1     000000
__HbssBANK10                      bssBANK10    000000
__HbssBANK2                       bssBANK2     000000
__HbssBANK3                       bssBANK3     000000
__HbssBANK4                       bssBANK4     000000
__HbssBANK5                       bssBANK5     000000
__HbssBANK7                       bssBANK7     000000
__HbssBANK8                       bssBANK8     000000
__HbssBANK9                       bssBANK9     000000
__HbssCOMRAM                      bssCOMRAM    000000
__Hcinit                          cinit        000000
__Hclrtext                        clrtext      000000
__Hcomram                         comram       000000
__Hconfig                         config       30000A
__Hconst                          const        000000
__HcstackBANK0                    cstackBANK0  000000
__HcstackBANK1                    cstackBANK1  000000
__HcstackBANK7                    cstackBANK7  000000
__HcstackCOMRAM                   cstackCOMRAM 000000
__Hdata                           data         000000
__HdataBANK1                      dataBANK1    000000
__HdataBANK4                      dataBANK4    000000
__HdataBANK5                      dataBANK5    000000
__HdataBANK6                      dataBANK6    000000
__HdataBANK7                      dataBANK7    000000
__HdataBANK9                      dataBANK9    000000
__Heeprom_data                    eeprom_data  000000
__Hend_init                       end_init     00001C
__Hfarbss                         farbss       000000
__Hfardata                        fardata      000000
__Hibigdata                       ibigdata     000000
__Hidata                          idata        000000
__HidataBANK1                     idataBANK1   000000
__HidataBANK4                     idataBANK4   000000
__HidataBANK5                     idataBANK5   000000
__HidataBANK6                     idataBANK6   000000
__HidataBANK7                     idataBANK7   000000
__HidataBANK9                     idataBANK9   000000
__Hidloc                          idloc        000000
__Hifardata                       ifardata     000000
__Hinit                           init         000018
__Hintcode                        intcode      000018
__Hintcode_body                   intcode_body 000000
__Hintcodelo                      intcodelo    000018
__Hintentry                       intentry     000000
__Hintret                         intret       000000
__Hintsave_regs                   intsave_regs 000000
__Hirdata                         irdata       000000
__Hmediumconst                    mediumconst  010000
__HnvBANK1                        nvBANK1      000000
__HnvFARRAM                       nvFARRAM     000000
__Hnvbit                          nvbit        000000
__Hnvrram                         nvrram       000000
__Hpa_nodes                       pa_nodes     000000
__Hparam                          rparam       000000
__Hpowerup                        powerup      000018
__Hram                            ram          000000
__Hramtop                         ramtop       001000
__Hrbit                           rbit         000000
__Hrbss                           rbss         000000
__Hrdata                          rdata        000000
__Hreset_vec                      reset_vec    000004
__Hrparam                         rparam       000000
__Hsfr                            sfr          000000
__Hsmallconst                     smallconst   000000
__Hspace_0                        (abs)        30000A
__Hspace_1                        (abs)        000A68
__Hspace_2                        (abs)        000000
__Hstack                          stack        000000
__Hstruct                         struct       000000
__Htemp                           temp         000000
__Htext                           text         000000
__Htext0                          text0        000000
__Htext1                          text1        000000
__Htext10                         text10       000000
__Htext100                        text100      000000
__Htext101                        text101      000000
__Htext102                        text102      000000
__Htext103                        text103      000000
__Htext104                        text104      000000
__Htext105                        text105      000000
__Htext106                        text106      000000
__Htext107                        text107      000000
__Htext108                        text108      000000
__Htext109                        text109      000000
__Htext11                         text11       000000
__Htext110                        text110      000000
__Htext111                        text111      000000
__Htext112                        text112      000000
__Htext113                        text113      000000
__Htext114                        text114      000000
__Htext115                        text115      000000
__Htext116                        text116      000000
__Htext117                        text117      000000
__Htext118                        text118      000000
__Htext119                        text119      000000
__Htext12                         text12       000000
__Htext120                        text120      000000
__Htext121                        text121      000000
__Htext122                        text122      000000
__Htext123                        text123      000000
__Htext124                        text124      000000
__Htext125                        text125      000000
__Htext126                        text126      000000
__Htext127                        text127      000000
__Htext128                        text128      000000
__Htext129                        text129      000000
__Htext13                         text13       000000
__Htext130                        text130      000000
__Htext131                        text131      000000
__Htext132                        text132      000000
__Htext133                        text133      000000
__Htext134                        text134      000000
__Htext135                        text135      000000
__Htext136                        text136      000000
__Htext137                        text137      000000
__Htext138                        text138      000000
__Htext139                        text139      000000
__Htext14                         text14       000000
__Htext140                        text140      000000
__Htext141                        text141      000000
__Htext142                        text142      000000
__Htext143                        text143      000000
__Htext144                        text144      000000
__Htext145                        text145      000000
__Htext146                        text146      000000
__Htext147                        text147      000000
__Htext148                        text148      000000
__Htext149                        text149      000000
__Htext15                         text15       000000
__Htext150                        text150      000000
__Htext151                        text151      000000
__Htext152                        text152      000000
__Htext153                        text153      000000
__Htext154                        text154      000000
__Htext155                        text155      000000
__Htext156                        text156      000000
__Htext157                        text157      000000
__Htext158                        text158      000000
__Htext159                        text159      000000
__Htext16                         text16       000000
__Htext160                        text160      000000
__Htext161                        text161      000000
__Htext162                        text162      000000
__Htext163                        text163      000000
__Htext164                        text164      000000
__Htext165                        text165      000000
__Htext166                        text166      000000
__Htext167                        text167      000000
__Htext168                        text168      000000
__Htext169                        text169      000000
__Htext17                         text17       000000
__Htext170                        text170      000000
__Htext171                        text171      000000
__Htext173                        text173      000000
__Htext174                        text174      000000
__Htext175                        text175      000000
__Htext176                        text176      000000
__Htext177                        text177      000000
__Htext178                        text178      000000
__Htext179                        text179      000000
__Htext18                         text18       000000
__Htext180                        text180      000000
__Htext181                        text181      000000
__Htext182                        text182      000000
__Htext183                        text183      000000
__Htext184                        text184      000000
__Htext185                        text185      000000
__Htext186                        text186      000000
__Htext19                         text19       000000
__Htext2                          text2        000000
__Htext20                         text20       000000
__Htext21                         text21       000000
__Htext22                         text22       000000
__Htext23                         text23       000000
__Htext24                         text24       000000
__Htext25                         text25       000000
__Htext26                         text26       000000
__Htext27                         text27       000000
__Htext28                         text28       000000
__Htext29                         text29       000000
__Htext3                          text3        000000
__Htext30                         text30       000000
__Htext31                         text31       000000
__Htext32                         text32       000000
__Htext33                         text33       000000
__Htext34                         text34       000000
__Htext35                         text35       000000
__Htext36                         text36       000000
__Htext37                         text37       000000
__Htext38                         text38       000000
__Htext39                         text39       000000
__Htext4                          text4        000000
__Htext40                         text40       000000
__Htext41                         text41       000000
__Htext42                         text42       000000
__Htext43                         text43       000000
__Htext44                         text44       000000
__Htext45                         text45       000000
__Htext46                         text46       000000
__Htext47                         text47       000000
__Htext48                         text48       000000
__Htext49                         text49       000000
__Htext5                          text5        000000
__Htext50                         text50       000000
__Htext51                         text51       000000
__Htext52                         text52       000000
__Htext53                         text53       000000
__Htext54                         text54       000000
__Htext55                         text55       000000
__Htext56                         text56       000000
__Htext57                         text57       000000
__Htext58                         text58       000000
__Htext59                         text59       000000
__Htext6                          text6        000000
__Htext60                         text60       000000
__Htext61                         text61       000000
__Htext62                         text62       000000
__Htext63                         text63       000000
__Htext64                         text64       000000
__Htext65                         text65       000000
__Htext66                         text66       000000
__Htext67                         text67       000000
__Htext68                         text68       000000
__Htext69                         text69       000000
__Htext7                          text7        000000
__Htext70                         text70       000000
__Htext71                         text71       000000
__Htext72                         text72       000000
__Htext73                         text73       000000
__Htext74                         text74       000000
__Htext75                         text75       000000
__Htext76                         text76       000000
__Htext77                         text77       000000
__Htext78                         text78       000000
__Htext79                         text79       000000
__Htext8                          text8        000000
__Htext80                         text80       000000
__Htext81                         text81       000000
__Htext82                         text82       000000
__Htext83                         text83       000000
__Htext84                         text84       000000
__Htext85                         text85       000000
__Htext86                         text86       000000
__Htext87                         text87       000000
__Htext88                         text88       000000
__Htext89                         text89       000000
__Htext9                          text9        000000
__Htext90                         text90       000000
__Htext91                         text91       000000
__Htext92                         text92       000000
__Htext93                         text93       000000
__Htext94                         text94       000000
__Htext95                         text95       000000
__Htext96                         text96       000000
__Htext97                         text97       000000
__Htext98                         text98       000000
__Htext99                         text99       000000
__LRAM                            (abs)        000001
__Labs1                           abs1         000000
__Lbank0                          bank0        000000
__Lbank1                          bank1        000000
__Lbank10                         bank10       000000
__Lbank11                         bank11       000000
__Lbank12                         bank12       000000
__Lbank13                         bank13       000000
__Lbank14                         bank14       000000
__Lbank15                         bank15       000000
__Lbank2                          bank2        000000
__Lbank3                          bank3        000000
__Lbank4                          bank4        000000
__Lbank5                          bank5        000000
__Lbank6                          bank6        000000
__Lbank7                          bank7        000000
__Lbank8                          bank8        000000
__Lbank9                          bank9        000000
__Lbigbss                         bigbss       000000
__Lbigdata                        bigdata      000000
__Lbigram                         bigram       000000
__Lbss                            bss          000000
__LbssBANK0                       bssBANK0     000000
__LbssBANK1                       bssBANK1     000000
__LbssBANK10                      bssBANK10    000000
__LbssBANK2                       bssBANK2     000000
__LbssBANK3                       bssBANK3     000000
__LbssBANK4                       bssBANK4     000000
__LbssBANK5                       bssBANK5     000000
__LbssBANK7                       bssBANK7     000000
__LbssBANK8                       bssBANK8     000000
__LbssBANK9                       bssBANK9     000000
__LbssCOMRAM                      bssCOMRAM    000000
__Lcinit                          cinit        000000
__Lclrtext                        clrtext      000000
__Lcomram                         comram       000000
__Lconfig                         config       300000
__Lconst                          const        000000
__LcstackBANK0                    cstackBANK0  000000
__LcstackBANK1                    cstackBANK1  000000
__LcstackBANK7                    cstackBANK7  000000
__LcstackCOMRAM                   cstackCOMRAM 000000
__Ldata                           data         000000
__LdataBANK1                      dataBANK1    000000
__LdataBANK4                      dataBANK4    000000
__LdataBANK5                      dataBANK5    000000
__LdataBANK6                      dataBANK6    000000
__LdataBANK7                      dataBANK7    000000
__LdataBANK9                      dataBANK9    000000
__Leeprom_data                    eeprom_data  000000
__Lend_init                       end_init     000018
__Lfarbss                         farbss       000000
__Lfardata                        fardata      000000
__Libigdata                       ibigdata     000000
__Lidata                          idata        000000
__LidataBANK1                     idataBANK1   000000
__LidataBANK4                     idataBANK4   000000
__LidataBANK5                     idataBANK5   000000
__LidataBANK6                     idataBANK6   000000
__LidataBANK7                     idataBANK7   000000
__LidataBANK9                     idataBANK9   000000
__Lidloc                          idloc        000000
__Lifardata                       ifardata     000000
__Linit                           init         000018
__Lintcode                        intcode      000008
__Lintcode_body                   intcode_body 000000
__Lintcodelo                      intcodelo    000018
__Lintentry                       intentry     000000
__Lintret                         intret       000000
__Lintsave_regs                   intsave_regs 000000
__Lirdata                         irdata       000000
__Lmediumconst                    mediumconst  00BEA0
__LnvBANK1                        nvBANK1      000000
__LnvFARRAM                       nvFARRAM     000000
__Lnvbit                          nvbit        000000
__Lnvrram                         nvrram       000000
__Lpa_nodes                       pa_nodes     000000
__Lparam                          rparam       000000
__Lpowerup                        powerup      000018
__Lram                            ram          000000
__Lramtop                         ramtop       001000
__Lrbit                           rbit         000000
__Lrbss                           rbss         000000
__Lrdata                          rdata        000000
__Lreset_vec                      reset_vec    000000
__Lrparam                         rparam       000000
__Lsfr                            sfr          000000
__Lsmallconst                     smallconst   000000
__Lspace_0                        (abs)        000000
__Lspace_1                        (abs)        000000
__Lspace_2                        (abs)        000000
__Lstack                          stack        000000
__Lstruct                         struct       000000
__Ltemp                           temp         000000
__Ltext                           text         000000
__Ltext0                          text0        000000
__Ltext1                          text1        000000
__Ltext10                         text10       000000
__Ltext100                        text100      000000
__Ltext101                        text101      000000
__Ltext102                        text102      000000
__Ltext103                        text103      000000
__Ltext104                        text104      000000
__Ltext105                        text105      000000
__Ltext106                        text106      000000
__Ltext107                        text107      000000
__Ltext108                        text108      000000
__Ltext109                        text109      000000
__Ltext11                         text11       000000
__Ltext110                        text110      000000
__Ltext111                        text111      000000
__Ltext112                        text112      000000
__Ltext113                        text113      000000
__Ltext114                        text114      000000
__Ltext115                        text115      000000
__Ltext116                        text116      000000
__Ltext117                        text117      000000
__Ltext118                        text118      000000
__Ltext119                        text119      000000
__Ltext12                         text12       000000
__Ltext120                        text120      000000
__Ltext121                        text121      000000
__Ltext122                        text122      000000
__Ltext123                        text123      000000
__Ltext124                        text124      000000
__Ltext125                        text125      000000
__Ltext126                        text126      000000
__Ltext127                        text127      000000
__Ltext128                        text128      000000
__Ltext129                        text129      000000
__Ltext13                         text13       000000
__Ltext130                        text130      000000
__Ltext131                        text131      000000
__Ltext132                        text132      000000
__Ltext133                        text133      000000
__Ltext134                        text134      000000
__Ltext135                        text135      000000
__Ltext136                        text136      000000
__Ltext137                        text137      000000
__Ltext138                        text138      000000
__Ltext139                        text139      000000
__Ltext14                         text14       000000
__Ltext140                        text140      000000
__Ltext141                        text141      000000
__Ltext142                        text142      000000
__Ltext143                        text143      000000
__Ltext144                        text144      000000
__Ltext145                        text145      000000
__Ltext146                        text146      000000
__Ltext147                        text147      000000
__Ltext148                        text148      000000
__Ltext149                        text149      000000
__Ltext15                         text15       000000
__Ltext150                        text150      000000
__Ltext151                        text151      000000
__Ltext152                        text152      000000
__Ltext153                        text153      000000
__Ltext154                        text154      000000
__Ltext155                        text155      000000
__Ltext156                        text156      000000
__Ltext157                        text157      000000
__Ltext158                        text158      000000
__Ltext159                        text159      000000
__Ltext16                         text16       000000
__Ltext160                        text160      000000
__Ltext161                        text161      000000
__Ltext162                        text162      000000
__Ltext163                        text163      000000
__Ltext164                        text164      000000
__Ltext165                        text165      000000
__Ltext166                        text166      000000
__Ltext167                        text167      000000
__Ltext168                        text168      000000
__Ltext169                        text169      000000
__Ltext17                         text17       000000
__Ltext170                        text170      000000
__Ltext171                        text171      000000
__Ltext173                        text173      000000
__Ltext174                        text174      000000
__Ltext175                        text175      000000
__Ltext176                        text176      000000
__Ltext177                        text177      000000
__Ltext178                        text178      000000
__Ltext179                        text179      000000
__Ltext18                         text18       000000
__Ltext180                        text180      000000
__Ltext181                        text181      000000
__Ltext182                        text182      000000
__Ltext183                        text183      000000
__Ltext184                        text184      000000
__Ltext185                        text185      000000
__Ltext186                        text186      000000
__Ltext19                         text19       000000
__Ltext2                          text2        000000
__Ltext20                         text20       000000
__Ltext21                         text21       000000
__Ltext22                         text22       000000
__Ltext23                         text23       000000
__Ltext24                         text24       000000
__Ltext25                         text25       000000
__Ltext26                         text26       000000
__Ltext27                         text27       000000
__Ltext28                         text28       000000
__Ltext29                         text29       000000
__Ltext3                          text3        000000
__Ltext30                         text30       000000
__Ltext31                         text31       000000
__Ltext32                         text32       000000
__Ltext33                         text33       000000
__Ltext34                         text34       000000
__Ltext35                         text35       000000
__Ltext36                         text36       000000
__Ltext37                         text37       000000
__Ltext38                         text38       000000
__Ltext39                         text39       000000
__Ltext4                          text4        000000
__Ltext40                         text40       000000
__Ltext41                         text41       000000
__Ltext42                         text42       000000
__Ltext43                         text43       000000
__Ltext44                         text44       000000
__Ltext45                         text45       000000
__Ltext46                         text46       000000
__Ltext47                         text47       000000
__Ltext48                         text48       000000
__Ltext49                         text49       000000
__Ltext5                          text5        000000
__Ltext50                         text50       000000
__Ltext51                         text51       000000
__Ltext52                         text52       000000
__Ltext53                         text53       000000
__Ltext54                         text54       000000
__Ltext55                         text55       000000
__Ltext56                         text56       000000
__Ltext57                         text57       000000
__Ltext58                         text58       000000
__Ltext59                         text59       000000
__Ltext6                          text6        000000
__Ltext60                         text60       000000
__Ltext61                         text61       000000
__Ltext62                         text62       000000
__Ltext63                         text63       000000
__Ltext64                         text64       000000
__Ltext65                         text65       000000
__Ltext66                         text66       000000
__Ltext67                         text67       000000
__Ltext68                         text68       000000
__Ltext69                         text69       000000
__Ltext7                          text7        000000
__Ltext70                         text70       000000
__Ltext71                         text71       000000
__Ltext72                         text72       000000
__Ltext73                         text73       000000
__Ltext74                         text74       000000
__Ltext75                         text75       000000
__Ltext76                         text76       000000
__Ltext77                         text77       000000
__Ltext78                         text78       000000
__Ltext79                         text79       000000
__Ltext8                          text8        000000
__Ltext80                         text80       000000
__Ltext81                         text81       000000
__Ltext82                         text82       000000
__Ltext83                         text83       000000
__Ltext84                         text84       000000
__Ltext85                         text85       000000
__Ltext86                         text86       000000
__Ltext87                         text87       000000
__Ltext88                         text88       000000
__Ltext89                         text89       000000
__Ltext9                          text9        000000
__Ltext90                         text90       000000
__Ltext91                         text91       000000
__Ltext92                         text92       000000
__Ltext93                         text93       000000
__Ltext94                         text94       000000
__Ltext95                         text95       000000
__Ltext96                         text96       000000
__Ltext97                         text97       000000
__Ltext98                         text98       000000
__Ltext99                         text99       000000
__S0                              (abs)        30000A
__S1                              (abs)        000A68
__S2                              (abs)        000000
___aldiv                          text104      01F9C8
___aldiv@counter                  cstackBANK0  000068
___aldiv@dividend                 cstackBANK0  000060
___aldiv@divisor                  cstackBANK0  000064
___aldiv@quotient                 cstackBANK0  00006A
___aldiv@sign                     cstackBANK0  000069
___awdiv                          text39       0004D8
___awdiv@counter                  cstackBANK0  000076
___awdiv@dividend                 cstackBANK0  000072
___awdiv@divisor                  cstackBANK0  000074
___awdiv@quotient                 cstackBANK0  000078
___awdiv@sign                     cstackBANK0  000077
___awmod                          text38       000946
___awmod@counter                  cstackBANK0  000076
___awmod@dividend                 cstackBANK0  000072
___awmod@divisor                  cstackBANK0  000074
___awmod@sign                     cstackBANK0  000077
___inthi_sp                       stack        000000
___intlo_sp                       stack        000000
___lbdiv                          text32       001A52
___lbdiv@counter                  cstackBANK0  000068
___lbdiv@dividend                 cstackBANK0  000067
___lbdiv@divisor                  cstackBANK0  000066
___lbdiv@quotient                 cstackBANK0  000069
___lbmod                          text18       001C8C
___lbmod@counter                  cstackBANK0  000062
___lbmod@dividend                 cstackBANK0  000061
___lbmod@divisor                  cstackBANK0  000060
___lbmod@rem                      cstackBANK0  000063
___lldiv                          text102      000BC8
___lldiv@counter                  cstackBANK0  000068
___lldiv@dividend                 cstackBANK0  000060
___lldiv@divisor                  cstackBANK0  000064
___lldiv@quotient                 cstackBANK0  000069
___lmul                           text27       0011FE
___lmul@multiplicand              cstackBANK0  000064
___lmul@multiplier                cstackBANK0  000060
___lmul@product                   cstackBANK0  000068
___lwdiv                          text171      0013BC
___lwdiv@counter                  cstackBANK0  000064
___lwdiv@dividend                 cstackBANK0  000060
___lwdiv@divisor                  cstackBANK0  000062
___lwdiv@quotient                 cstackBANK0  000065
___lwmod                          text49       001842
___lwmod@counter                  cstackBANK0  000064
___lwmod@dividend                 cstackBANK0  000060
___lwmod@divisor                  cstackBANK0  000062
___sp                             stack        000000
___wmul                           text148      001CFE
___wmul@multiplicand              cstackBANK0  000062
___wmul@multiplier                cstackBANK0  000060
___wmul@product                   cstackBANK0  000064
__accesstop                       (abs)        000060
__activetblptr                    (abs)        000003
__end_ofPL10                      text0        01396C
__end_ofPL100                     text7        015650
__end_ofPL102                     text11       018AA8
__end_ofPL104                     text0        013BAE
__end_ofPL106                     text0        013BCA
__end_ofPL108                     text170      01D1BC
__end_ofPL110                     text12       01C02C
__end_ofPL112                     text0        013BD8
__end_ofPL114                     text0        013C6A
__end_ofPL116                     text7        015660
__end_ofPL118                     text33       0166BC
__end_ofPL12                      text0        01397A
__end_ofPL120                     text14       01E1F6
__end_ofPL122                     text7        01566E
__end_ofPL124                     text12       01C056
__end_ofPL126                     text33       0166D8
__end_ofPL128                     text33       0166EE
__end_ofPL130                     text7        015684
__end_ofPL132                     text24       01EF8E
__end_ofPL134                     text33       01671A
__end_ofPL136                     text0        013C96
__end_ofPL138                     text33       016758
__end_ofPL14                      text0        01399A
__end_ofPL140                     text7        015692
__end_ofPL142                     text12       01C074
__end_ofPL144                     text33       016774
__end_ofPL146                     text11       018ABE
__end_ofPL148                     text7        0156A0
__end_ofPL150                     text11       018AD2
__end_ofPL152                     text7        0156B0
__end_ofPL154                     text33       01678A
__end_ofPL156                     text12       01C096
__end_ofPL158                     text0        013CDA
__end_ofPL16                      text0        0139AE
__end_ofPL160                     text7        0156CA
__end_ofPL162                     text122      01BD66
__end_ofPL164                     text7        0156E6
__end_ofPL166                     text103      01727C
__end_ofPL168                     text0        013D0A
__end_ofPL170                     text7        0156F4
__end_ofPL172                     text33       01679A
__end_ofPL174                     text13       01A9CE
__end_ofPL176                     text23       01CB4A
__end_ofPL178                     text0        013D5C
__end_ofPL18                      text0        0139CC
__end_ofPL180                     text7        01570A
__end_ofPL182                     text11       018AFE
__end_ofPL184                     text103      01728C
__end_ofPL186                     text0        013D6C
__end_ofPL188                     text7        01571A
__end_ofPL190                     text0        013D7C
__end_ofPL192                     text8        01E06A
__end_ofPL194                     text0        013D92
__end_ofPL196                     text0        013DBC
__end_ofPL198                     text17       01C36E
__end_ofPL2                       text0        01386E
__end_ofPL20                      text0        0139EE
__end_ofPL200                     text58       01D5C4
__end_ofPL202                     text0        013DCE
__end_ofPL204                     text0        013DE8
__end_ofPL206                     text177      0196FE
__end_ofPL208                     text106      019D94
__end_ofPL210                     text115      019086
__end_ofPL212                     text173      01A3EE
__end_ofPL214                     text40       01D3C8
__end_ofPL216                     text177      01971A
__end_ofPL218                     text173      01A40A
__end_ofPL22                      text146      01D7C8
__end_ofPL220                     text115      0190A2
__end_ofPL222                     text20       01FC7E
__end_ofPL224                     text106      019DB0
__end_ofPL226                     text50       01E7CC
__end_ofPL228                     text170      01D1D6
__end_ofPL230                     text40       01D3E2
__end_ofPL232                     text8        01E078
__end_ofPL234                     text177      01973C
__end_ofPL236                     text173      01A42C
__end_ofPL238                     text115      0190C4
__end_ofPL24                      text0        0139FE
__end_ofPL240                     text106      019DD2
__end_ofPL242                     text45       01FFC4
__end_ofPL244                     text7        01572A
__end_ofPL246                     text44       01FEF6
__end_ofPL248                     text7        01574C
__end_ofPL250                     text43       01FE28
__end_ofPL252                     text0        013DF2
__end_ofPL254                     text0        013E06
__end_ofPL256                     text0        013E14
__end_ofPL258                     text13       01A9E6
__end_ofPL26                      text0        013A1C
__end_ofPL260                     text40       01D3FA
__end_ofPL262                     text7        01576C
__end_ofPL264                     text103      0172AC
__end_ofPL266                     text103      0172BA
__end_ofPL268                     text116      01F4A0
__end_ofPL270                     text58       01D5CE
__end_ofPL272                     text167      0182A4
__end_ofPL274                     text168      017AB8
__end_ofPL276                     text33       0167B8
__end_ofPL278                     text103      0172D0
__end_ofPL28                      text0        013A2A
__end_ofPL280                     text122      01BD7C
__end_ofPL282                     text0        013E1C
__end_ofPL284                     text33       0167CE
__end_ofPL286                     text33       0167E4
__end_ofPL288                     text7        015782
__end_ofPL290                     text0        013E32
__end_ofPL292                     text33       0167F6
__end_ofPL294                     text0        013E44
__end_ofPL296                     text33       016808
__end_ofPL298                     text0        013E56
__end_ofPL30                      text0        013A3A
__end_ofPL300                     text168      017AD4
__end_ofPL302                     text167      0182C0
__end_ofPL304                     text103      0172DE
__end_ofPL306                     text13       01AA16
__end_ofPL308                     text103      01730E
__end_ofPL310                     text0        013E6A
__end_ofPL312                     text17       01C382
__end_ofPL314                     text0        013E7E
__end_ofPL316                     text7        01579C
__end_ofPL318                     text17       01C39C
__end_ofPL32                      text7        0155BA
__end_ofPL320                     text0        013E8E
__end_ofPL322                     text0        013E9E
__end_ofPL324                     text12       01C0A6
__end_ofPL326                     text17       01C3AA
__end_ofPL328                     text0        013EAA
__end_ofPL330                     text33       016818
__end_ofPL332                     text173      01A444
__end_ofPL334                     text7        0157B4
__end_ofPL336                     text177      019754
__end_ofPL338                     text122      01BD90
__end_ofPL34                      text7        0155C4
__end_ofPL340                     text168      017AE4
__end_ofPL342                     text0        013EBC
__end_ofPL344                     text7        0157C6
__end_ofPL346                     text17       01C3BC
__end_ofPL348                     text0        013EE4
__end_ofPL350                     text9        01CFDC
__end_ofPL352                     text86       01F1BC
__end_ofPL354                     text71       01D9B0
__end_ofPL356                     text103      017332
__end_ofPL358                     text33       01683C
__end_ofPL36                      text11       018A5C
__end_ofPL360                     text115      0190E8
__end_ofPL362                     text113      01AF32
__end_ofPL364                     text105      01B410
__end_ofPL366                     text106      019DF6
__end_ofPL368                     text113      01AF3E
__end_ofPL370                     text13       01AA24
__end_ofPL372                     text0        013EF2
__end_ofPL374                     text11       018B0C
__end_ofPL376                     text105      01B41C
__end_ofPL378                     text167      0182E2
__end_ofPL38                      text33       01668A
__end_ofPL380                     text63       01C642
__end_ofPL382                     text168      017B06
__end_ofPL384                     text33       01684A
__end_ofPL386                     text31       01E512
__end_ofPL388                     text0        013F02
__end_ofPL390                     text0        013F12
__end_ofPL392                     text30       01DECC
__end_ofPL394                     text0        013F24
__end_ofPL396                     text0        013F38
__end_ofPL398                     text0        013F58
__end_ofPL4                       text0        0138B0
__end_ofPL40                      text33       01669A
__end_ofPL400                     text168      017B26
__end_ofPL402                     text167      018300
__end_ofPL404                     text12       01C0C2
__end_ofPL406                     text0        013F6A
__end_ofPL408                     text7        0157D8
__end_ofPL410                     text12       01C0D2
__end_ofPL412                     text167      018312
__end_ofPL414                     text7        0157EA
__end_ofPL416                     text168      017B38
__end_ofPL418                     text33       01685C
__end_ofPL42                      text0        013A7C
__end_ofPL420                     text33       01686E
__end_ofPL422                     text167      018324
__end_ofPL424                     text168      017B4A
__end_ofPL426                     text0        013F7A
__end_ofPL428                     text177      019770
__end_ofPL430                     text33       01687C
__end_ofPL432                     text173      01A460
__end_ofPL434                     text58       01D5EA
__end_ofPL436                     text122      01BD9E
__end_ofPL438                     text106      019E10
__end_ofPL44                      text0        013A8A
__end_ofPL440                     text13       01AA3E
__end_ofPL442                     text114      000CB2
__end_ofPL444                     text103      01734C
__end_ofPL446                     text116      01F4BA
__end_ofPL448                     text106      019E2A
__end_ofPL450                     text115      019102
__end_ofPL452                     text7        015804
__end_ofPL454                     text61       01CDA0
__end_ofPL456                     text103      017366
__end_ofPL458                     text177      01978A
__end_ofPL46                      text7        0155DE
__end_ofPL460                     text173      01A47A
__end_ofPL462                     text88       000DFC
__end_ofPL464                     text7        01581E
__end_ofPL466                     text103      017380
__end_ofPL468                     text115      01911C
__end_ofPL470                     text14       01E204
__end_ofPL472                     text13       01AA58
__end_ofPL474                     text14       01E212
__end_ofPL476                     text0        013F88
__end_ofPL478                     text50       01E7DE
__end_ofPL48                      text0        013A98
__end_ofPL480                     text9        01CFEC
__end_ofPL482                     text0        013F98
__end_ofPL484                     text0        013FA8
__end_ofPL486                     text103      017390
__end_ofPL488                     text30       01DEDC
__end_ofPL490                     text0        013FBC
__end_ofPL492                     text7        01582E
__end_ofPL494                     text15       01C8F6
__end_ofPL496                     text0        013FCC
__end_ofPL498                     text0        013FDC
__end_ofPL50                      text7        0155FE
__end_ofPL500                     text11       018B1C
__end_ofPL502                     text31       01E522
__end_ofPL504                     text116      01F4D2
__end_ofPL506                     text54       01EA86
__end_ofPL508                     text7        015846
__end_ofPL510                     text2        01B8FC
__end_ofPL512                     text13       01AA6E
__end_ofPL514                     text0        013FF4
__end_ofPL516                     text0        01400C
__end_ofPL518                     text0        014024
__end_ofPL52                      text0        013AA8
__end_ofPL520                     text0        01403C
__end_ofPL522                     text168      017B62
__end_ofPL524                     text0        014054
__end_ofPL526                     text167      01833C
__end_ofPL528                     text0        01406A
__end_ofPL530                     text106      019E40
__end_ofPL532                     text12       01C0E8
__end_ofPL534                     text177      0197A0
__end_ofPL536                     text173      01A490
__end_ofPL538                     text147      0000CE
__end_ofPL54                      text0        013AB6
__end_ofPL540                     text173      01A4A6
__end_ofPL542                     text115      019132
__end_ofPL544                     text177      0197B6
__end_ofPL546                     text106      019E4C
__end_ofPL548                     text167      01834A
__end_ofPL550                     text126      001ABE
__end_ofPL552                     text0        01407A
__end_ofPL554                     text161      01E67A
__end_ofPL556                     text0        014088
__end_ofPL558                     text115      01913E
__end_ofPL56                      text7        01560C
__end_ofPL560                     text23       01CB58
__end_ofPL562                     text168      017B70
__end_ofPL564                     text54       01EA98
__end_ofPL566                     text33       016890
__end_ofPL568                     text63       01C64C
__end_ofPL570                     text173      01A4B8
__end_ofPL572                     text36       01E38A
__end_ofPL574                     text106      019E5E
__end_ofPL576                     text177      0197C8
__end_ofPL578                     text115      019150
__end_ofPL58                      text0        013AC2
__end_ofPL580                     text7        015854
__end_ofPL582                     text0        01409A
__end_ofPL584                     text0        0140AC
__end_ofPL586                     text106      019E70
__end_ofPL588                     text115      019162
__end_ofPL590                     text50       01E7F0
__end_ofPL592                     text173      01A4CA
__end_ofPL594                     text115      019174
__end_ofPL596                     text0        0140BE
__end_ofPL598                     text0        0140D0
__end_ofPL6                       text0        0138F8
__end_ofPL60                      text0        013AFC
__end_ofPL600                     text36       01E39C
__end_ofPL602                     text106      019E82
__end_ofPL604                     text33       0168A2
__end_ofPL606                     text170      01D1E8
__end_ofPL608                     text177      0197DA
__end_ofPL610                     text7        015866
__end_ofPL612                     text7        015878
__end_ofPL614                     text147      0000D8
__end_ofPL616                     text168      017B7C
__end_ofPL618                     text167      018356
__end_ofPL62                      text113      01AECC
__end_ofPL620                     text61       01CDB0
__end_ofPL622                     text115      019184
__end_ofPL624                     text177      0197EA
__end_ofPL626                     text0        0140E0
__end_ofPL628                     text12       01C0F8
__end_ofPL630                     text33       0168B2
__end_ofPL632                     text15       01C906
__end_ofPL634                     text0        0140F0
__end_ofPL636                     text106      019E92
__end_ofPL638                     text29       01F6D8
__end_ofPL64                      text105      01B3AA
__end_ofPL640                     text106      019EA2
__end_ofPL642                     text173      01A4DA
__end_ofPL644                     text0        014100
__end_ofPL646                     text0        014110
__end_ofPL648                     text105      01B42C
__end_ofPL650                     text0        014120
__end_ofPL652                     text173      01A4EA
__end_ofPL654                     text173      01A4FA
__end_ofPL656                     text23       01CB68
__end_ofPL658                     text90       00038C
__end_ofPL66                      text13       01A9BE
__end_ofPL660                     text7        015888
__end_ofPL662                     text115      019194
__end_ofPL664                     text113      01AF4E
__end_ofPL666                     text7        015898
__end_ofPL668                     text177      0197FA
__end_ofPL670                     text0        014130
__end_ofPL672                     text106      019EB2
__end_ofPL674                     text72       01DB70
__end_ofPL676                     text0        014140
__end_ofPL678                     text90       00039C
__end_ofPL68                      text0        013B24
__end_ofPL680                     text173      01A50A
__end_ofPL682                     text146      01D7D8
__end_ofPL684                     text7        0158A8
__end_ofPL686                     text177      01980A
__end_ofPL688                     text71       01D9C0
__end_ofPL690                     text147      0000E8
__end_ofPL692                     text177      01981A
__end_ofPL694                     text115      0191A4
__end_ofPL696                     text161      01E68A
__end_ofPL698                     text167      01835E
__end_ofPL70                      text20       01FC3A
__end_ofPL700                     text168      017B84
__end_ofPL702                     text7        0158B6
__end_ofPL704                     text170      01D1F6
__end_ofPL706                     text7        0158C4
__end_ofPL708                     text0        01414E
__end_ofPL710                     text13       01AA7C
__end_ofPL712                     text7        0158D0
__end_ofPL714                     text0        01415C
__end_ofPL716                     text109      01FB98
__end_ofPL718                     text113      01AF5C
__end_ofPL72                      text0        013B40
__end_ofPL720                     text110      01EE68
__end_ofPL722                     text72       01DB7E
__end_ofPL724                     text0        01416A
__end_ofPL726                     text63       01C65A
__end_ofPL728                     text7        0158DA
__end_ofPL730                     text0        014178
__end_ofPL732                     text0        014186
__end_ofPL734                     text0        014194
__end_ofPL736                     text108      01F0B0
__end_ofPL738                     text7        0158E8
__end_ofPL74                      text0        013B80
__end_ofPL740                     text0        0141A2
__end_ofPL742                     text0        0141B0
__end_ofPL744                     text105      01B43A
__end_ofPL746                     text2        01B90A
__end_ofPL748                     text173      01A512
__end_ofPL750                     text63       01C662
__end_ofPL752                     text0        0141BA
__end_ofPL754                     text170      01D200
__end_ofPL756                     text177      019822
__end_ofPL758                     text149      01F5CE
__end_ofPL76                      text105      01B3BC
__end_ofPL760                     text173      01A51C
__end_ofPL762                     text115      0191AE
__end_ofPL764                     text33       0168BC
__end_ofPL766                     text106      019EBC
__end_ofPL768                     text177      01982C
__end_ofPL770                     text0        0141C4
__end_ofPL772                     text149      01F5D6
__end_ofPL774                     text0        0141CE
__end_ofPL776                     text33       0168C2
__end_ofPL778                     text177      019836
__end_ofPL78                      text113      01AEDE
__end_ofPL780                     text33       0168C8
__end_ofPL782                     text173      01A526
__end_ofPL784                     text33       0168CE
__end_ofPL786                     text7        0158F0
__end_ofPL788                     text33       0168D4
__end_ofPL790                     text33       0168DC
__end_ofPL792                     text33       0168E2
__end_ofPL8                       text0        01393E
__end_ofPL80                      text7        015632
__end_ofPL82                      text20       01FC6E
__end_ofPL84                      text0        013B8E
__end_ofPL86                      text11       018A9A
__end_ofPL88                      text7        015640
__end_ofPL90                      text0        013B9C
__end_ofPL92                      text113      01AEF6
__end_ofPL94                      text105      01B3D4
__end_ofPL96                      text113      01AF0E
__end_ofPL98                      text105      01B3EC
__end_of_Advanced_locs            mediumconst  00EC6E
__end_of_BatteryAverage           text170      01D1A0
__end_of_Beginner_locs            mediumconst  00ECAA
__end_of_BuildCmd                 text161      01E66C
__end_of_BusyXLCD                 text132      001DD2
__end_of_CalcBotPwm               text168      017A9A
__end_of_CalcLimits               text116      01F48E
__end_of_CalcTopPwm               text167      018286
__end_of_CheckBattery             text153      0011FE
__end_of_ChipDeSelect             text166      001B26
__end_of_ChipReserve              text150      001FC0
__end_of_ChipSelect               text165      001802
__end_of_CloseCapture1            text81       002016
__end_of_CloseCapture2            text80       002010
__end_of_ClosePWM3                text79       00202E
__end_of_ClosePWM4                text78       00202A
__end_of_ClosePWM5                text77       002026
__end_of_CloseTimer0              text76       00200A
__end_of_CloseTimer1              text75       002004
__end_of_CloseTimer3              text74       001FFE
__end_of_CloseTimer4              text73       001FF8
__end_of_CurSense                 mediumconst  00C2D1
__end_of_CurShot_diag             text58       01D596
__end_of_Delay10KTCYx             text131      001EAC
__end_of_Delay1KTCYx              text164      001F78
__end_of_DelayFor18TCY            text133      001EC6
__end_of_DelayPORXLCD             text130      002022
__end_of_DisableSlaveSPI          text152      00071A
__end_of_EnableSlaveSPI           text151      001AF2
__end_of_FeedMtrDone              text88       000DE2
__end_of_FeedPwm2Sec              text120      0004D8
__end_of_FeedStartTbl             mediumconst  00EBF2
__end_of_ForceShot                text55       001FF2
__end_of_GetMtrResponse           text119      000ACE
__end_of_Intermediate_locs        mediumconst  00ECE6
__end_of_InvCmd                   mediumconst  00F016
__end_of_Lefty_locs               mediumconst  00ED22
__end_of_Moonballer_locs          mediumconst  00ED5E
__end_of_MtrResponse              text56       001FCE
__end_of_NxtShot_diag             text57       00024E
__end_of_Open1USART               text145      000FE4
__end_of_Open2USART               text144      000E62
__end_of_OpenCapture1             text143      001F64
__end_of_OpenCapture2             text142      001682
__end_of_OpenPWM3                 text141      001E56
__end_of_OpenPWM4                 text140      001E16
__end_of_OpenPWM5                 text139      001DF4
__end_of_OpenSPI1                 text138      00156E
__end_of_OpenTimer0               text137      001E74
__end_of_OpenTimer1               text136      001CFE
__end_of_OpenTimer3               text135      001CD8
__end_of_OpenTimer4               text134      001EE0
__end_of_OpenXLCD                 text127      0005FE
__end_of_PgaGain                  text94       001328
__end_of_Read1USART               text98       001FB0
__end_of_Read2USART               text96       001D8E
__end_of_ReadCapture1             text185      001FA0
__end_of_ReadCapture2             text184      001F8C
__end_of_ReadSPI1                 text163      001FEA
__end_of_RemoteSaveDrill          text146      01D7B0
__end_of_SEERead                  text89       0014DE
__end_of_SEEWrite                 text149      01F5C4
__end_of_SetBotPwm                text115      019072
__end_of_SetDCPWM3                text157      001932
__end_of_SetDCPWM4                text155      0018F8
__end_of_SetDCPWM5                text159      00196C
__end_of_SetDDRamAddr             text129      001D6C
__end_of_SetFeedImm               text87       0010F8
__end_of_SetFeedPwm               text86       01F1AA
__end_of_SetFeedRate              text118      001526
__end_of_SetTopPwm                text106      019D80
__end_of_Setup                    text122      01BD42
__end_of_Slicer_locs              mediumconst  00ED9A
__end_of_SlowFeedMtr              text114      000C98
__end_of_SlvTimeOut               text117      00201C
__end_of_SpeedInRange             text121      0013BC
__end_of_StartBot                 text113      01AEA8
__end_of_StartElevRandom          text112      000D96
__end_of_StartFeed                text110      01EE5A
__end_of_StartFeedAtSpd           text109      01FB8A
__end_of_StartFeedCont            text108      01F0A2
__end_of_StartSweepRandom         text107      000D24
__end_of_StartTop                 text105      01B386
__end_of_StopBidirMtrs            text160      001FDC
__end_of_StopBotMtr               text158      0017C2
__end_of_StopFeedMtr              text156      001782
__end_of_StopTopMtr               text154      001742
__end_of_SvcShots                 text103      017260
__end_of_UpdBotPer                text91       0018BE
__end_of_UpdTopPer                text72       01DB60
__end_of_Write2USART              text22       001F10
__end_of_WriteCmdXLCD             text128      001DB0
__end_of_WriteDataXLCD            text5        001E36
__end_of_WriteSPI1                text162      001E92
__end_of___aldiv                  text104      01FAB0
__end_of___awdiv                  text39       00056C
__end_of___awmod                  text38       0009CA
__end_of___lbdiv                  text32       001A88
__end_of___lbmod                  text18       001CB2
__end_of___lldiv                  text102      000C3E
__end_of___lmul                   text27       00124A
__end_of___lwdiv                  text171      001406
__end_of___lwmod                  text49       001880
__end_of___wmul                   text148      001D24
__end_of__initialization          cinit        01EBDC
__end_of__stringdata              mediumconst  00FFFE
__end_of_a2dGain                  mediumconst  00C383
__end_of_a2d_diag                 text61       01CD86
__end_of_abort_shot               text46       001BB6
__end_of_accel_hi                 mediumconst  00EF43
__end_of_accel_hi_d               mediumconst  00EF63
__end_of_accel_low                mediumconst  00EF83
__end_of_accel_low_d              mediumconst  00EFA3
__end_of_accel_med                mediumconst  00EFC3
__end_of_accel_med_d              mediumconst  00EFE3
__end_of_accel_xlow_d             mediumconst  00F003
__end_of_allcourt_locs            mediumconst  00EDD6
__end_of_atoh                     text84       01F7DA
__end_of_attdef_locs              mediumconst  00EE12
__end_of_base_feeds               mediumconst  00C321
__end_of_base_feeds_cont          mediumconst  00C341
__end_of_base_speeds              mediumconst  00EC32
__end_of_bot_diag                 text66       0002FA
__end_of_build_curshot            text30       01DEB4
__end_of_centry                   mediumconst  00C0ED
__end_of_chartoa                  text36       01E378
__end_of_check_keypad             text100      01F3CE
__end_of_check_limits             text29       01F6C8
__end_of_chip_select              text64       001F50
__end_of_clear_lcd                text41       001496
__end_of_court_locs               mediumconst  00E6CA
__end_of_crlf                     mediumconst  00F02C
__end_of_debounce_power_button    text99       0011A8
__end_of_debounced_remote         text97       000946
__end_of_debounced_remote_USART2  text95       001372
__end_of_dumpaddr                 text93       002038
__end_of_dumphex                  text101      00203A
__end_of_dumplong                 text111      00203C
__end_of_dumpmem                  text70       000832
__end_of_dumpshort                text92       002036
__end_of_ee_test                  text63       01C620
__end_of_elev_diag                text59       0016C2
__end_of_exec_diag                text50       01E7BC
__end_of_feed_diag                text67       01E948
__end_of_flash_header             mediumconst  00EF23
__end_of_foreonly_locs            mediumconst  00EE4E
__end_of_get60mph0spin            text20       01FC0C
__end_of_getLocAvail              text19       00068C
__end_of_grinder_locs             mediumconst  00EE8A
__end_of_home_loc                 mediumconst  00C37C
__end_of_isLocAvail               text35       000A4C
__end_of_is_available             text34       0015B4
__end_of_isr                      intcode_body 01ED2A
__end_of_itoa                     text47       0015FA
__end_of_kbdiag                   text53       01F9C8
__end_of_key2loc                  mediumconst  00C20D
__end_of_limit_method             text28       001294
__end_of_line_start               mediumconst  00C3A2
__end_of_load_prog                text17       01C322
__end_of_lob_abort                text6        00109C
__end_of_lob_error                text40       01D3AC
__end_of_lob_idle                 text9        01CFCA
__end_of_lob_manual               text8        01E04A
__end_of_lob_parm                 text33       016662
__end_of_lob_play                 text7        0155A4
__end_of_lob_preset               text12       01C018
__end_of_lob_program              text11       018A28
__end_of_lob_sleep                text10       002032
__end_of_lob_test                 text13       01A9AE
__end_of_lobmach                  mediumconst  00C38A
__end_of_lobmach_EL04             mediumconst  00C391
__end_of_lobmach_EL05LE2          mediumconst  00C398
__end_of_lobmain                  text2        01B8E6
__end_of_main                     text0        01382E
__end_of_memset                   text124      001C12
__end_of_nofunc                   text51       002034
__end_of_parse_next               text82       0008BE
__end_of_power_locs               mediumconst  00EEC6
__end_of_poweroff                 text52       0007A6
__end_of_pre_rand                 mediumconst  00C275
__end_of_preparm1base             mediumconst  00C354
__end_of_preset_mask              mediumconst  00C301
__end_of_putrsDIAG                text169      00203E
__end_of_putrsXLCD                text4        000EC4
__end_of_puts2USART               text21       001C8C
__end_of_putsXLCD                 text3        001B88
__end_of_pwm_debug                text62       000BC8
__end_of_rand                     text25       000B4E
__end_of_rbuf_init                text126      001AB0
__end_of_rbuf_ins                 text90       00037C
__end_of_ready                    mediumconst  00F029
__end_of_rowbits                  mediumconst  00C39E
__end_of_save_prog                text147      0000B8
__end_of_serve_method             text24       01EF16
__end_of_set_intensity            text125      001D48
__end_of_set_serve                text31       01E4FA
__end_of_setmem                   text69       001C3C
__end_of_show_prog1               text23       01CB3C
__end_of_show_prog2               text16       01F2C6
__end_of_show_prog3               text15       01C8E6
__end_of_show_progRPM             text14       01E1E2
__end_of_slavecmd                 text54       01EA6E
__end_of_sm_service               text45       01FFA2
__end_of_sm_service_EL04          text44       01FED4
__end_of_sm_service_EL05LE2       text43       01FE06
__end_of_space                    mediumconst  00F02E
__end_of_speed_trans              mediumconst  00C364
__end_of_spitest                  text68       00019E
__end_of_srand                    text26       001F26
__end_of_stop_all                 text65       001A52
__end_of_strcat                   text1        001152
__end_of_strchr                   text83       001BE4
__end_of_strcpy                   text42       0012DE
__end_of_strlen                   text85       001640
__end_of_strncpy                  text37       000F84
__end_of_sweep_diag               text60       001702
__end_of_sweepcols                mediumconst  00C372
__end_of_test_loc                 mediumconst  00F020
__end_of_top_diag                 text71       01D98A
__end_of_transition_locs          mediumconst  00EF02
__end_of_utoa                     text48       00043C
__end_of_varinit                  text123      01DD2E
__end_of_xtbl                     mediumconst  00E84A
__end_of_xtbl_EL04                mediumconst  00E9CA
__end_of_xtbl_EL05LE2             mediumconst  00EB4A
__end_ofi2_ChipDeSelect           text182      001B5A
__end_ofi2_ChipSelect             text181      020000
__end_ofi2_DelayFor18TCY          text183      001EFA
__end_ofi2_PgaGain                text179      001842
__end_ofi2_SetBotPwm              text177      0196EA
__end_ofi2_SetDCPWM3              text176      0019E0
__end_ofi2_SetDCPWM4              text174      0019A6
__end_ofi2_SetDCPWM5              text178      001A1A
__end_ofi2_SetFeedPwm             text175      01F8D4
__end_ofi2_SetTopPwm              text173      01A3DA
__end_ofi2_WriteSPI1              text180      001F3C
__initialization                  cinit        01EA98
__mediumconst                     mediumconst  00BEA0
__pbssBANK0                       bssBANK0     0000D4
__pbssBANK1                       bssBANK1     000100
__pbssBANK10                      bssBANK10    000A00
__pbssBANK2                       bssBANK2     000200
__pbssBANK3                       bssBANK3     000300
__pbssBANK4                       bssBANK4     000400
__pbssBANK5                       bssBANK5     000500
__pbssBANK7                       bssBANK7     000700
__pbssBANK8                       bssBANK8     000800
__pbssBANK9                       bssBANK9     000900
__pbssCOMRAM                      bssCOMRAM    000001
__pcinit                          cinit        01EA98
__pcstackBANK0                    cstackBANK0  000060
__pcstackBANK1                    cstackBANK1  0001BF
__pcstackBANK7                    cstackBANK7  0007C8
__pcstackCOMRAM                   cstackCOMRAM 000022
__pdataBANK1                      dataBANK1    0001F4
__pdataBANK4                      dataBANK4    0004D8
__pdataBANK5                      dataBANK5    00058E
__pdataBANK6                      dataBANK6    000600
__pdataBANK7                      dataBANK7    000768
__pdataBANK9                      dataBANK9    000968
__pidataBANK1                     idataBANK1   00202E
__pidataBANK4                     idataBANK4   001C3C
__pidataBANK5                     idataBANK5   001406
__pidataBANK6                     idataBANK6   01FC7E
__pidataBANK7                     idataBANK7   000EC4
__pidataBANK9                     idataBANK9   000FE4
__pintcode                        intcode      000008
__pintcode_body                   intcode_body 01EBE2
__pmediumconst                    mediumconst  00BEA0
__pnvBANK1                        nvBANK1      0001EB
__ptext0                          text0        010000
__ptext1                          text1        0010F8
__ptext10                         text10       002030
__ptext100                        text100      01F2C6
__ptext101                        text101      002038
__ptext102                        text102      000BC8
__ptext103                        text103      0168E2
__ptext104                        text104      01F9C8
__ptext105                        text105      01AF5C
__ptext106                        text106      019836
__ptext107                        text107      000CB2
__ptext108                        text108      01EF8E
__ptext109                        text109      01FAB0
__ptext11                         text11       01835E
__ptext110                        text110      01ED2A
__ptext111                        text111      00203A
__ptext112                        text112      000D24
__ptext113                        text113      01AA7C
__ptext114                        text114      000C3E
__ptext115                        text115      018B1C
__ptext116                        text116      01F3CE
__ptext117                        text117      002016
__ptext118                        text118      0014DE
__ptext119                        text119      000A4C
__ptext12                         text12       01BD9E
__ptext120                        text120      00043C
__ptext121                        text121      001372
__ptext122                        text122      01B90A
__ptext123                        text123      01DB7E
__ptext124                        text124      001BE4
__ptext125                        text125      001D24
__ptext126                        text126      001A88
__ptext127                        text127      00056C
__ptext128                        text128      001D8E
__ptext129                        text129      001D48
__ptext13                         text13       01A526
__ptext130                        text130      00201C
__ptext131                        text131      001E92
__ptext132                        text132      001DB0
__ptext133                        text133      001EAC
__ptext134                        text134      001EC6
__ptext135                        text135      001CB2
__ptext136                        text136      001CD8
__ptext137                        text137      001E56
__ptext138                        text138      001526
__ptext139                        text139      001DD2
__ptext14                         text14       01E078
__ptext140                        text140      001DF4
__ptext141                        text141      001E36
__ptext142                        text142      001640
__ptext143                        text143      001F50
__ptext144                        text144      000DFC
__ptext145                        text145      000F84
__ptext146                        text146      01D5EA
__ptext147                        text147      00001C
__ptext148                        text148      001CFE
__ptext149                        text149      01F4D2
__ptext15                         text15       01C662
__ptext150                        text150      001FB0
__ptext151                        text151      001ABE
__ptext152                        text152      00068C
__ptext153                        text153      0011A8
__ptext154                        text154      001702
__ptext155                        text155      0018BE
__ptext156                        text156      001742
__ptext157                        text157      0018F8
__ptext158                        text158      001782
__ptext159                        text159      001932
__ptext16                         text16       01F1BC
__ptext160                        text160      001FCE
__ptext161                        text161      01E522
__ptext162                        text162      001E74
__ptext163                        text163      001FDC
__ptext164                        text164      001F64
__ptext165                        text165      0017C2
__ptext166                        text166      001AF2
__ptext167                        text167      017B84
__ptext168                        text168      017390
__ptext169                        text169      00203C
__ptext17                         text17       01C0F8
__ptext170                        text170      01CFEC
__ptext171                        text171      0013BC
__ptext173                        text173      019EBC
__ptext174                        text174      00196C
__ptext175                        text175      01F7DA
__ptext176                        text176      0019A6
__ptext177                        text177      0191AE
__ptext178                        text178      0019E0
__ptext179                        text179      001802
__ptext18                         text18       001C8C
__ptext180                        text180      001F26
__ptext181                        text181      01FFC4
__ptext182                        text182      001B26
__ptext183                        text183      001EE0
__ptext184                        text184      001F78
__ptext185                        text185      001F8C
__ptext186                        text186      000000
__ptext19                         text19       0005FE
__ptext2                          text2        01B43A
__ptext20                         text20       01FB98
__ptext21                         text21       001C64
__ptext22                         text22       001EFA
__ptext23                         text23       01C906
__ptext24                         text24       01EE68
__ptext25                         text25       000ACE
__ptext26                         text26       001F10
__ptext27                         text27       0011FE
__ptext28                         text28       00124A
__ptext29                         text29       01F5D6
__ptext3                          text3        001B5A
__ptext30                         text30       01DD2E
__ptext31                         text31       01E39C
__ptext32                         text32       001A52
__ptext33                         text33       0158F0
__ptext34                         text34       00156E
__ptext35                         text35       0009CA
__ptext36                         text36       01E212
__ptext37                         text37       000F24
__ptext38                         text38       000946
__ptext39                         text39       0004D8
__ptext4                          text4        000E62
__ptext40                         text40       01D200
__ptext41                         text41       00144E
__ptext42                         text42       001294
__ptext43                         text43       01FD5A
__ptext44                         text44       01FE28
__ptext45                         text45       01FEF6
__ptext46                         text46       001B88
__ptext47                         text47       0015B4
__ptext48                         text48       00039C
__ptext49                         text49       001842
__ptext5                          text5        001E16
__ptext50                         text50       01E68A
__ptext51                         text51       002032
__ptext52                         text52       00071A
__ptext53                         text53       01F8D4
__ptext54                         text54       01E948
__ptext55                         text55       001FEA
__ptext56                         text56       001FC0
__ptext57                         text57       00019E
__ptext58                         text58       01D3FA
__ptext59                         text59       001682
__ptext6                          text6        001040
__ptext60                         text60       0016C2
__ptext61                         text61       01CB68
__ptext62                         text62       000B4E
__ptext63                         text63       01C3BC
__ptext64                         text64       001F3C
__ptext65                         text65       001A1A
__ptext66                         text66       00024E
__ptext67                         text67       01E7F0
__ptext68                         text68       0000E8
__ptext69                         text69       001C12
__ptext7                          text7        0141CE
__ptext70                         text70       0007A6
__ptext71                         text71       01D7D8
__ptext72                         text72       01D9C0
__ptext73                         text73       001FF2
__ptext74                         text74       001FF8
__ptext75                         text75       001FFE
__ptext76                         text76       002004
__ptext77                         text77       002022
__ptext78                         text78       002026
__ptext79                         text79       00202A
__ptext8                          text8        01DEDC
__ptext80                         text80       00200A
__ptext81                         text81       002010
__ptext82                         text82       000832
__ptext83                         text83       001BB6
__ptext84                         text84       01F6D8
__ptext85                         text85       0015FA
__ptext86                         text86       01F0B0
__ptext87                         text87       00109C
__ptext88                         text88       000D96
__ptext89                         text89       001496
__ptext9                          text9        01CDB0
__ptext90                         text90       0002FA
__ptext91                         text91       001880
__ptext92                         text92       002034
__ptext93                         text93       002036
__ptext94                         text94       0012DE
__ptext95                         text95       001328
__ptext96                         text96       001D6C
__ptext97                         text97       0008BE
__ptext98                         text98       001FA0
__ptext99                         text99       001152
__ramtop                          ramtop       001000
__size_of_BatteryAverage          (abs)        000000
__size_of_BuildCmd                (abs)        000000
__size_of_BusyXLCD                (abs)        000000
__size_of_CalcBotPwm              (abs)        000000
__size_of_CalcLimits              (abs)        000000
__size_of_CalcTopPwm              (abs)        000000
__size_of_CheckBattery            (abs)        000000
__size_of_ChipDeSelect            (abs)        000000
__size_of_ChipReserve             (abs)        000000
__size_of_ChipSelect              (abs)        000000
__size_of_CloseCapture1           (abs)        000000
__size_of_CloseCapture2           (abs)        000000
__size_of_ClosePWM3               (abs)        000000
__size_of_ClosePWM4               (abs)        000000
__size_of_ClosePWM5               (abs)        000000
__size_of_CloseTimer0             (abs)        000000
__size_of_CloseTimer1             (abs)        000000
__size_of_CloseTimer3             (abs)        000000
__size_of_CloseTimer4             (abs)        000000
__size_of_CurShot_diag            (abs)        000000
__size_of_Delay10KTCYx            (abs)        000000
__size_of_Delay1KTCYx             (abs)        000000
__size_of_DelayFor18TCY           (abs)        000000
__size_of_DelayPORXLCD            (abs)        000000
__size_of_DisableSlaveSPI         (abs)        000000
__size_of_EnableSlaveSPI          (abs)        000000
__size_of_FeedMtrDone             (abs)        000000
__size_of_FeedPwm2Sec             (abs)        000000
__size_of_ForceShot               (abs)        000000
__size_of_GetMtrResponse          (abs)        000000
__size_of_MtrResponse             (abs)        000000
__size_of_NxtShot_diag            (abs)        000000
__size_of_Open1USART              (abs)        000000
__size_of_Open2USART              (abs)        000000
__size_of_OpenCapture1            (abs)        000000
__size_of_OpenCapture2            (abs)        000000
__size_of_OpenPWM3                (abs)        000000
__size_of_OpenPWM4                (abs)        000000
__size_of_OpenPWM5                (abs)        000000
__size_of_OpenSPI1                (abs)        000000
__size_of_OpenTimer0              (abs)        000000
__size_of_OpenTimer1              (abs)        000000
__size_of_OpenTimer3              (abs)        000000
__size_of_OpenTimer4              (abs)        000000
__size_of_OpenXLCD                (abs)        000000
__size_of_PgaGain                 (abs)        000000
__size_of_Read1USART              (abs)        000000
__size_of_Read2USART              (abs)        000000
__size_of_ReadCapture1            (abs)        000000
__size_of_ReadCapture2            (abs)        000000
__size_of_ReadSPI1                (abs)        000000
__size_of_RemoteSaveDrill         (abs)        000000
__size_of_SEERead                 (abs)        000000
__size_of_SEEWrite                (abs)        000000
__size_of_SetBotPwm               (abs)        000000
__size_of_SetDCPWM3               (abs)        000000
__size_of_SetDCPWM4               (abs)        000000
__size_of_SetDCPWM5               (abs)        000000
__size_of_SetDDRamAddr            (abs)        000000
__size_of_SetFeedImm              (abs)        000000
__size_of_SetFeedPwm              (abs)        000000
__size_of_SetFeedRate             (abs)        000000
__size_of_SetTopPwm               (abs)        000000
__size_of_Setup                   (abs)        000000
__size_of_SlowFeedMtr             (abs)        000000
__size_of_SlvTimeOut              (abs)        000000
__size_of_SpeedInRange            (abs)        000000
__size_of_StartBot                (abs)        000000
__size_of_StartElevRandom         (abs)        000000
__size_of_StartFeed               (abs)        000000
__size_of_StartFeedAtSpd          (abs)        000000
__size_of_StartFeedCont           (abs)        000000
__size_of_StartSweepRandom        (abs)        000000
__size_of_StartTop                (abs)        000000
__size_of_StopBidirMtrs           (abs)        000000
__size_of_StopBotMtr              (abs)        000000
__size_of_StopFeedMtr             (abs)        000000
__size_of_StopTopMtr              (abs)        000000
__size_of_SvcShots                (abs)        000000
__size_of_UpdBotPer               (abs)        000000
__size_of_UpdTopPer               (abs)        000000
__size_of_Write2USART             (abs)        000000
__size_of_WriteCmdXLCD            (abs)        000000
__size_of_WriteDataXLCD           (abs)        000000
__size_of_WriteSPI1               (abs)        000000
__size_of___aldiv                 (abs)        000000
__size_of___awdiv                 (abs)        000000
__size_of___awmod                 (abs)        000000
__size_of___lbdiv                 (abs)        000000
__size_of___lbmod                 (abs)        000000
__size_of___lldiv                 (abs)        000000
__size_of___lmul                  (abs)        000000
__size_of___lwdiv                 (abs)        000000
__size_of___lwmod                 (abs)        000000
__size_of___wmul                  (abs)        000000
__size_of_a2d_diag                (abs)        000000
__size_of_abort_shot              (abs)        000000
__size_of_atoh                    (abs)        000000
__size_of_bot_diag                (abs)        000000
__size_of_build_curshot           (abs)        000000
__size_of_chartoa                 (abs)        000000
__size_of_check_keypad            (abs)        000000
__size_of_check_limits            (abs)        000000
__size_of_chip_select             (abs)        000000
__size_of_clear_lcd               (abs)        000000
__size_of_debounce_power_button   (abs)        000000
__size_of_debounced_remote        (abs)        000000
__size_of_debounced_remote_USART2 (abs)        000000
__size_of_dumpaddr                (abs)        000000
__size_of_dumphex                 (abs)        000000
__size_of_dumplong                (abs)        000000
__size_of_dumpmem                 (abs)        000000
__size_of_dumpshort               (abs)        000000
__size_of_ee_test                 (abs)        000000
__size_of_elev_diag               (abs)        000000
__size_of_exec_diag               (abs)        000000
__size_of_feed_diag               (abs)        000000
__size_of_get60mph0spin           (abs)        000000
__size_of_getLocAvail             (abs)        000000
__size_of_isLocAvail              (abs)        000000
__size_of_is_available            (abs)        000000
__size_of_isr                     (abs)        000000
__size_of_itoa                    (abs)        000000
__size_of_kbdiag                  (abs)        000000
__size_of_limit_method            (abs)        000000
__size_of_load_prog               (abs)        000000
__size_of_lob_abort               (abs)        000000
__size_of_lob_error               (abs)        000000
__size_of_lob_idle                (abs)        000000
__size_of_lob_manual              (abs)        000000
__size_of_lob_parm                (abs)        000000
__size_of_lob_play                (abs)        000000
__size_of_lob_preset              (abs)        000000
__size_of_lob_program             (abs)        000000
__size_of_lob_sleep               (abs)        000000
__size_of_lob_test                (abs)        000000
__size_of_lobmain                 (abs)        000000
__size_of_main                    (abs)        000000
__size_of_memset                  (abs)        000000
__size_of_nofunc                  (abs)        000000
__size_of_parse_next              (abs)        000000
__size_of_poweroff                (abs)        000000
__size_of_putrsDIAG               (abs)        000000
__size_of_putrsXLCD               (abs)        000000
__size_of_puts2USART              (abs)        000000
__size_of_putsXLCD                (abs)        000000
__size_of_pwm_debug               (abs)        000000
__size_of_rand                    (abs)        000000
__size_of_rbuf_init               (abs)        000000
__size_of_rbuf_ins                (abs)        000000
__size_of_save_prog               (abs)        000000
__size_of_serve_method            (abs)        000000
__size_of_set_intensity           (abs)        000000
__size_of_set_serve               (abs)        000000
__size_of_setmem                  (abs)        000000
__size_of_show_prog1              (abs)        000000
__size_of_show_prog2              (abs)        000000
__size_of_show_prog3              (abs)        000000
__size_of_show_progRPM            (abs)        000000
__size_of_slavecmd                (abs)        000000
__size_of_sm_service              (abs)        000000
__size_of_sm_service_EL04         (abs)        000000
__size_of_sm_service_EL05LE2      (abs)        000000
__size_of_spitest                 (abs)        000000
__size_of_srand                   (abs)        000000
__size_of_stop_all                (abs)        000000
__size_of_strcat                  (abs)        000000
__size_of_strchr                  (abs)        000000
__size_of_strcpy                  (abs)        000000
__size_of_strlen                  (abs)        000000
__size_of_strncpy                 (abs)        000000
__size_of_sweep_diag              (abs)        000000
__size_of_top_diag                (abs)        000000
__size_of_utoa                    (abs)        000000
__size_of_varinit                 (abs)        000000
__size_ofi2_ChipDeSelect          (abs)        000000
__size_ofi2_ChipSelect            (abs)        000000
__size_ofi2_DelayFor18TCY         (abs)        000000
__size_ofi2_PgaGain               (abs)        000000
__size_ofi2_SetBotPwm             (abs)        000000
__size_ofi2_SetDCPWM3             (abs)        000000
__size_ofi2_SetDCPWM4             (abs)        000000
__size_ofi2_SetDCPWM5             (abs)        000000
__size_ofi2_SetFeedPwm            (abs)        000000
__size_ofi2_SetTopPwm             (abs)        000000
__size_ofi2_WriteSPI1             (abs)        000000
__smallconst                      smallconst   000000
__stringdata                      mediumconst  00F02E
_a2dChan                          bssCOMRAM    000011
_a2dGain                          mediumconst  00C37C
_a2dValue                         bssBANK4     00043A
_a2d_diag                         text61       01CB68
_a2dtest                          bssBANK1     000177
_abort_key                        bssBANK1     000178
_abort_shot                       text46       001B88
_aborted_mode                     bssBANK1     000179
_accel_bot                        bssBANK0     0000DC
_accel_feed                       bssBANK1     00010A
_accel_hi                         mediumconst  00EF23
_accel_hi_d                       mediumconst  00EF43
_accel_low                        mediumconst  00EF63
_accel_low_d                      mediumconst  00EF83
_accel_med                        mediumconst  00EFA3
_accel_med_d                      mediumconst  00EFC3
_accel_range                      bssBANK3     000300
_accel_range_bot                  bssBANK3     000320
_accel_top                        bssBANK0     0000E0
_accel_xlow_d                     mediumconst  00EFE3
_act_program                      bssBANK3     000346
_allcourt_locs                    mediumconst  00ED9A
_atoh                             text84       01F6D8
_atoh$4589                        cstackBANK0  000072
_attdef_locs                      mediumconst  00EDD6
_ball_feed                        bssBANK1     000134
_ball_feed_bottom                 bssBANK2     00026F
_base_feeds                       mediumconst  00C301
_base_feeds_cont                  mediumconst  00C321
_base_speeds                      mediumconst  00EBF2
_batt_cnt                         bssBANK1     00017A
_batt_ticks                       bssBANK1     00010E
_batval                           bssBANK1     000136
_bias                             bssBANK2     00025C
_bot_delta                        bssBANK1     000138
_bot_delta1                       bssBANK2     000271
_bot_diag                         text66       00024E
_bot_dir                          bssCOMRAM    000012
_bot_drift                        bssBANK2     000273
_bot_incr                         bssBANK1     00013A
_bot_last_delta                   bssCOMRAM    000009
_bot_last_delta1                  bssBANK1     00013C
_bot_mid                          bssBANK1     00013E
_bot_phase3_cnt                   bssBANK2     000275
_bot_phase6_cnt                   bssBANK2     000277
_bot_pwm                          bssBANK0     0000E4
_bot_stat                         bssBANK0     0000F8
_bot_t1                           bssBANK2     000279
_bot_t2                           bssBANK1     000140
_bot_timer_cnt                    bssBANK2     00027B
_build_curshot                    text30       01DD2E
_build_curshot$3523               cstackBANK0  00006E
_centry                           mediumconst  00BEA1
_chartoa                          text36       01E212
_check_keypad                     text100      01F2C6
_check_limits                     text29       01F5D6
_check_limits$3544                cstackBANK0  00006C
_chip_select                      text64       001F3C
_clear_lcd                        text41       00144E
_court_locs                       mediumconst  00C3A2
_crlf                             mediumconst  00F029
_curState                         bssBANK1     00017B
_cur_st                           bssBANK1     0001BC
_cursor_state                     bssBANK1     00017C
_cursor_tmr                       bssBANK1     00017D
_d_bot_per                        bssBANK0     0000EC
_d_feed_per                       bssCOMRAM    000001
_d_top_per                        bssCOMRAM    00000B
_dashes                           bssBANK1     00017E
_dashes_tmr                       dataBANK1    0001F4
_debounce_power_button            text99       001152
_debounced_remote                 text97       0008BE
_debounced_remote_USART2          text95       001328
_di_inbuf                         bssBANK8     000800
_di_outbuf                        bssBANK7     000700
_dpb_thrash                       bssBANK2     00027D
_dumpaddr                         text93       002036
_dumphex                          text101      002038
_dumplong                         text111      00203A
_dumpmem                          text70       0007A6
_dumpshort                        text92       002034
_ee_buf64                         bssBANK8     0008A8
_ee_progstart                     bssBANK2     000232
_ee_test                          text63       01C3BC
_eladj                            bssBANK1     000142
_elev_corr                        bssCOMRAM    00001B
_elev_corr_tmp                    bssBANK1     000144
_elev_diag                        text59       001682
_exec_diag                        text50       01E68A
_feed_diag                        text67       01E7F0
_feed_limit                       bssBANK1     000112
_feed_pwm                         bssCOMRAM    000005
_feed_slow                        bssBANK1     000146
_feed_stat                        bssCOMRAM    00001D
_flash_header                     mediumconst  00EF02
_foreonly_locs                    mediumconst  00EE12
_get60mph0spin                    text20       01FB98
_get60mph0spin$4047               cstackBANK0  000068
_getLocAvail                      text19       0005FE
_grinder_locs                     mediumconst  00EE4E
_home_loc                         mediumconst  00C372
_home_ticks                       bssBANK2     000236
_homeshown                        bssBANK1     00017F
_isLocAvail                       text35       0009CA
_is_available                     text34       00156E
_isr                              intcode      000008
_itoa                             text47       0015B4
_kbdiag                           text53       01F8D4
_key2loc                          mediumconst  00C0ED
_keyhold                          bssBANK1     000148
_lastLoc                          bssBANK2     00025F
_last_feed_pwm                    bssBANK1     000116
_last_received                    bssBANK2     00023A
_last_top_t1                      bssBANK1     00014A
_last_top_t2                      bssBANK1     00014C
_lastbata2d                       bssBANK2     00023E
_lastbatval                       bssBANK2     00027F
_lcd_line                         bssBANK3     0003A1
_lcd_updated                      bssBANK1     000180
_limit_method                     text28       00124A
_line_start                       mediumconst  00C39E
_load_prog                        text17       01C0F8
_loaded_progno                    dataBANK1    0001F5
_lob_abort                        text6        001040
_lob_error                        text40       01D200
_lob_idle                         text9        01CDB0
_lob_manual                       text8        01DEDC
_lob_model                        bssBANK1     000126
_lob_parm                         text33       0158F0
_lob_parm$4421                    cstackBANK0  000097
_lob_parm$4422                    cstackBANK0  000099
_lob_parm$4423                    cstackBANK0  00009B
_lob_parm$4424                    cstackBANK0  00009D
_lob_parm$4425                    cstackBANK0  00009F
_lob_parm$4426                    cstackBANK0  0000A1
_lob_parm$4427                    cstackBANK0  0000A3
_lob_parm$4428                    cstackBANK0  0000A5
_lob_parm$4429                    cstackBANK0  0000A7
_lob_parm$8402                    cstackBANK0  000096
_lob_play                         text7        0141CE
_lob_play$3605                    cstackBANK0  0000BF
_lob_preset                       text12       01BD9E
_lob_program                      text11       01835E
_lob_program$4102                 cstackBANK0  000095
_lob_sleep                        text10       002030
_lob_test                         text13       01A526
_lob_test$3719                    cstackBANK0  000085
_lob_test$3721                    cstackBANK0  000087
_lob_version                      bssBANK1     000129
_lobfuncs                         dataBANK5    0005BE
_lobmach                          mediumconst  00C383
_lobmach_EL04                     mediumconst  00C38A
_lobmach_EL05LE2                  mediumconst  00C391
_lobmain                          text2        01B43A
_loop_delay                       bssBANK1     00011A
_lowbatt_msg                      bssBANK2     000262
_m_bot_per                        bssBANK0     0000EE
_m_top_per                        bssCOMRAM    00000D
_main                             text0        010000
_main_ostate                      bssBANK1     00014E
_man1shot                         bssBANK1     000181
_man_parm                         bssBANK1     0001BD
_manual                           nvBANK1      0001EB
_manual_horiz_decr                bssBANK1     000182
_max_count                        bssBANK2     000242
_memset                           text124      001BE4
_min_count                        bssBANK2     000246
_model_type                       bssBANK1     000183
_motormsg                         dataBANK5    00058E
_msec5                            bssBANK1     000184
_nofunc                           text51       002032
_num_methods                      bssBANK4     000428
_parameters                       dataBANK6    000600
_parm_fmt                         dataBANK9    000968
_parse_next                       text82       000832
_play_mode                        bssCOMRAM    000015
_play_state                       bssBANK1     000185
_power                            bssBANK1     0001B6
_power_locs                       mediumconst  00EE8A
_power_on                         bssBANK1     000186
_power_state                      bssBANK1     000187
_poweroff                         text52       00071A
_pp_dashes                        bssBANK1     000188
_pp_fmt                           dataBANK4    0004D8
_pp_maxloc                        bssBANK1     000189
_pp_odashes                       bssBANK1     00018A
_ppparm_ix                        bssBANK0     0000F3
_ppshot_ix                        bssBANK0     0000F4
_pre_rand                         mediumconst  00C20D
_preparm1base                     mediumconst  00C341
_preset                           bssBANK4     000448
_preset_ix                        bssBANK2     0002DF
_preset_mask                      mediumconst  00C2D1
_preset_sub                       dataBANK7    000768
_preset_sub2                      dataBANK7    000798
_preset_type                      bssCOMRAM    000013
_prev_st                          bssBANK1     0001BE
_priorState                       bssBANK1     00018B
_prog_chgd                        bssBANK1     00018C
_program_ix                       bssBANK1     00018D
_putrsDIAG                        text169      00203C
_putrsXLCD                        text4        000E62
_puts2USART                       text21       001C64
_putsXLCD                         text3        001B5A
_pwm_debug                        text62       000B4E
_rand                             text25       000ACE
_randf                            bssBANK1     00018E
_randx                            bssBANK2     00024A
_rbuf_init                        text126      001A88
_rbuf_ins                         text90       0002FA
_rc_qualified                     bssBANK1     00018F
_ready                            mediumconst  00F020
_remote_enabled                   bssBANK1     000190
_repeat                           bssBANK2     00024E
_rm_inbuf                         bssBANK9     000900
_rm_outbuf                        bssBANK10    000A00
_rndm_base_feeds_index            bssBANK0     0000F0
_rndm_base_feeds_index_old        bssBANK1     000150
_rowbits                          mediumconst  00C398
_save_prog                        text147      00001C
_serve_method                     text24       01EE68
_serve_method$3573                cstackBANK0  00006E
_set_intensity                    text125      001D24
_set_serve                        text31       01E39C
_set_serve$3506                   cstackBANK0  000080
_setmem                           text69       001C12
_show_prog1                       text23       01C906
_show_prog2                       text16       01F1BC
_show_prog3                       text15       01C662
_show_progRPM                     text14       01E078
_slavecmd                         text54       01E948
_sm_service                       text45       01FEF6
_sm_service_EL04                  text44       01FE28
_sm_service_EL05LE2               text43       01FD5A
_space                            mediumconst  00F02C
_speed_trans                      mediumconst  00C354
_speedmax                         bssBANK1     000191
_speedmin                         bssBANK1     000192
_spinmax                          bssBANK1     000193
_spinmin                          bssBANK1     000194
_spitest                          text68       0000E8
_srand                            text26       001F10
_start_count                      bssBANK2     000252
_start_delay                      bssBANK1     00011E
_stat                             bssCOMRAM    000021
_stop_all                         text65       001A1A
_strcat                           text1        0010F8
_strchr                           text83       001BB6
_strcpy                           text42       001294
_strlen                           text85       0015FA
_strncpy                          text37       000F24
_sweep_diag                       text60       0016C2
_sweepcols                        mediumconst  00C364
_test_loc                         mediumconst  00F016
_ticks                            bssBANK1     000122
_timer4_cnt                       bssBANK1     000195
_tmp                              bssBANK2     0002FB
_toggle_play                      bssBANK1     000196
_top_delta                        bssBANK1     000152
_top_diag                         text71       01D7D8
_top_dir                          bssCOMRAM    000014
_top_drift                        bssBANK2     000281
_top_incr                         bssBANK1     000154
_top_last_delta                   bssCOMRAM    00000F
_top_last_delta1                  bssBANK1     000156
_top_mid                          bssBANK1     000158
_top_phase3_cnt                   bssBANK2     000283
_top_phase6_cnt                   bssBANK2     000285
_top_pwm                          bssBANK0     0000E8
_top_stat                         bssCOMRAM    00001F
_top_t1                           bssBANK1     00015A
_top_t2                           bssBANK1     00015C
_top_timer_cnt                    bssBANK2     000287
_transition_locs                  mediumconst  00EEC6
_utoa                             text48       00039C
_varinit                          text123      01DB7E
_xtbl                             mediumconst  00E6CA
_xtbl_EL04                        mediumconst  00E84A
_xtbl_EL05LE2                     mediumconst  00E9CA
a2d_diag@args                     cstackBANK0  000078
a2d_diag@code                     cstackBANK0  000076
a2d_diag@i                        cstackBANK0  000086
a2d_diag@i_2753                   cstackBANK0  000080
a2d_diag@j                        cstackBANK0  00007E
a2d_diag@val                      cstackBANK0  000082
atoh@c                            cstackBANK0  000077
atoh@cptr                         cstackBANK0  000064
atoh@i                            cstackBANK0  000070
atoh@j                            cstackBANK0  000075
atoh@rc                           cstackBANK0  000078
atoh@sign                         cstackBANK0  000074
bot_diag@args                     cstackBANK0  000078
bot_diag@code                     cstackBANK0  000076
build_curshot@botval              cstackBANK0  000074
build_curshot@ixa                 cstackBANK0  000076
build_curshot@pp                  cstackBANK0  00006A
build_curshot@stmp                cstackBANK0  000077
build_curshot@tmp                 cstackBANK0  000070
build_curshot@topval              cstackBANK0  000072
chartoa@c                         cstackBANK0  000081
chartoa@cp                        cstackBANK0  00007A
chartoa@ndig                      cstackBANK0  00007C
chartoa@x                         cstackBANK0  000082
check_keypad@col                  cstackBANK0  000062
check_keypad@hold                 bssBANK1     00015E
check_keypad@i                    cstackBANK0  000061
check_keypad@j                    cstackBANK0  000063
check_keypad@odat                 bssBANK1     000197
check_keypad@rc                   cstackBANK0  000064
check_limits@i                    cstackBANK0  000070
check_limits@ix                   cstackBANK0  000067
check_limits@j                    cstackBANK0  000071
check_limits@locp                 cstackBANK0  000065
check_limits@locpSpeed            cstackBANK0  00006E
check_limits@locpSpin             cstackBANK0  00006F
chip_select@args                  cstackBANK0  000078
clear_lcd@i                       cstackBANK0  00006F
clear_lcd@line                    cstackBANK0  00006E
clear_lcd@mask                    cstackBANK0  00006D
debounced_remote@rc               cstackBANK0  00006B
debounced_remote_USART2@rc        cstackBANK0  000063
dumpaddr@addr                     cstackBANK0  000060
dumplong@addr                     cstackBANK0  000060
dumpmem@args                      cstackBANK0  000078
dumpmem@ix                        cstackBANK0  00007B
dumpmem@ix1                       cstackBANK0  00007F
dumpshort@addr                    cstackBANK0  000060
ee_test@addr                      cstackBANK0  000081
ee_test@args                      cstackBANK0  000078
ee_test@code                      cstackBANK0  000076
ee_test@data                      cstackBANK0  000080
ee_test@status                    cstackBANK0  000083
ee_test@status1                   cstackBANK0  00007F
ee_test@status2                   cstackBANK0  00007D
ee_test@status3                   cstackBANK0  00007E
elev_diag@args                    cstackBANK0  000078
elev_diag@code                    cstackBANK0  000076
end_of_initialization             cinit        01EBDC
exec_diag@argary                  cstackBANK0  00008C
exec_diag@cmd                     cstackBANK0  00008A
exec_diag@cptr                    cstackBANK0  0000AC
exec_diag@i                       cstackBANK0  0000AE
exec_diag@j                       cstackBANK0  0000AF
feed_diag@args                    cstackBANK0  000078
feed_diag@code                    cstackBANK0  000076
get60mph0spin@i                   cstackBANK0  00006B
get60mph0spin@loc                 cstackBANK0  00006A
getLocAvail@locNo                 cstackBANK0  00006B
getLocAvail@locp                  cstackBANK0  00006C
getLocAvail@method                cstackBANK0  00006E
getLocAvail@pmeth                 cstackBANK0  000068
getLocAvail@spd                   cstackBANK0  000066
getLocAvail@spn                   cstackBANK0  000067
i2ChipDeSelect@dev                cstackCOMRAM 000022
i2ChipSelect@dev                  cstackCOMRAM 000022
i2PgaGain@chan                    cstackCOMRAM 000026
i2PgaGain@gain                    cstackCOMRAM 000028
i2SetBotPwm@delta                 cstackCOMRAM 000039
i2SetBotPwm@drift                 cstackCOMRAM 000033
i2SetBotPwm@drift1                cstackCOMRAM 000031
i2SetBotPwm@i                     cstackCOMRAM 000037
i2SetBotPwm@incr                  cstackCOMRAM 000035
i2SetDCPWM3@DCycle                cstackCOMRAM 000026
i2SetDCPWM3@dutycycle             cstackCOMRAM 000022
i2SetDCPWM4@DCycle                cstackCOMRAM 000026
i2SetDCPWM4@dutycycle             cstackCOMRAM 000022
i2SetDCPWM5@DCycle                cstackCOMRAM 000026
i2SetDCPWM5@dutycycle             cstackCOMRAM 000022
i2SetTopPwm@delta                 cstackCOMRAM 000039
i2SetTopPwm@drift                 cstackCOMRAM 000033
i2SetTopPwm@drift1                cstackCOMRAM 000031
i2SetTopPwm@i                     cstackCOMRAM 000037
i2SetTopPwm@incr                  cstackCOMRAM 000035
i2WriteSPI1@data_out              cstackCOMRAM 000022
i2_ChipDeSelect                   text182      001B26
i2_ChipSelect                     text181      01FFC4
i2_DelayFor18TCY                  text183      001EE0
i2_PgaGain                        text179      001802
i2_SetBotPwm                      text177      0191AE
i2_SetDCPWM3                      text176      0019A6
i2_SetDCPWM4                      text174      00196C
i2_SetDCPWM5                      text178      0019E0
i2_SetFeedPwm                     text175      01F7DA
i2_SetTopPwm                      text173      019EBC
i2_WriteSPI1                      text180      001F26
int_func                          intcode_body 01EBE2
intlevel0                         text         000000
intlevel1                         text         000000
intlevel2                         text         000000
intlevel3                         text         000000
isLocAvail@locNo                  cstackBANK0  00006A
isLocAvail@locp                   cstackBANK0  00006B
isLocAvail@method                 cstackBANK0  00006D
isLocAvail@spd                    cstackBANK0  000066
isLocAvail@spn                    cstackBANK0  000067
is_available@locno                cstackBANK0  000070
is_available@rc                   cstackBANK0  000071
is_available@spd                  cstackBANK0  00006E
is_available@spn                  cstackBANK0  00006F
itoa@base                         cstackBANK0  000074
itoa@buf                          cstackBANK0  000070
itoa@val                          cstackBANK0  000072
kbdiag@args                       cstackBANK0  000078
kbdiag@code                       cstackBANK0  000076
kbdiag@col                        cstackBANK0  00007C
kbdiag@i                          cstackBANK0  00007D
kbdiag@loop                       bssBANK2     000289
kbdiag@uc                         cstackBANK0  00007E
limit_method@i                    cstackBANK0  000077
limit_method@ix                   cstackBANK0  000074
limit_method@j                    cstackBANK0  000076
limit_method@locp                 cstackBANK0  000072
load_prog@eeaddr                  cstackBANK0  00008D
load_prog@i                       cstackBANK0  00008F
load_prog@ppErr                   cstackBANK0  000089
load_prog@ppers                   cstackBANK0  000080
load_prog@progno                  cstackBANK0  00008C
load_prog@spd                     cstackBANK0  00008B
load_prog@spn                     cstackBANK0  000088
lob_abort@cmd                     cstackBANK0  00007F
lob_error@code                    cstackBANK0  00007C
lob_idle@ky                       cstackBANK0  000078
lob_manual@arg                    cstackBANK0  0000C0
lob_manual@cmd                    cstackBANK0  0000BF
lob_manual@pparm                  cstackBANK0  0000BD
lob_parm@botMenu                  cstackBANK0  000095
lob_parm@cmd                      cstackBANK0  0000AE
lob_parm@cmsk                     cstackBANK0  0000A9
lob_parm@i                        cstackBANK0  0000B7
lob_parm@k                        cstackBANK0  0000B2
lob_parm@ln                       cstackBANK0  0000AC
lob_parm@mask                     cstackBANK0  000087
lob_parm@newval                   cstackBANK0  0000B6
lob_parm@pix                      cstackBANK0  000083
lob_parm@pparm                    cstackBANK0  000085
lob_parm@premode                  cstackBANK0  0000B4
lob_parm@tmsk                     cstackBANK0  0000AF
lob_play@cmd                      cstackBANK0  0000C5
lob_play@line                     bssBANK1     000198
lob_play@loc                      bssBANK0     0000F5
lob_play@method                   cstackBANK0  0000C7
lob_play@pp                       cstackBANK0  0000CA
lob_play@pp_prev_loc              bssBANK1     000199
lob_play@premode                  cstackBANK0  0000C6
lob_play@preposition              bssBANK1     00019A
lob_play@preshot_ix               bssBANK0     0000F6
lob_play@rnd                      cstackBANK0  0000C3
lob_play@shotp                    cstackBANK0  0000C8
lob_play@tmpix                    cstackBANK0  0000C1
lob_preset@cmd                    cstackBANK0  0000C3
lob_preset@i                      cstackBANK0  0000C1
lob_preset@pix                    cstackBANK0  0000BF
lob_preset@pparmx                 cstackBANK0  0000BD
lob_program@cmd                   cstackBANK0  000099
lob_program@field                 bssBANK0     0000F7
lob_program@locno                 cstackBANK0  000098
lob_program@method                cstackBANK0  00009B
lob_program@nused                 bssBANK1     00019B
lob_program@val                   cstackBANK0  000097
lob_program@val2                  cstackBANK0  00009A
lob_sleep@cmd                     cstackBANK0  000060
lob_test@changed                  cstackBANK0  000089
lob_test@cmd                      cstackBANK0  00008B
lob_test@ft                       cstackBANK0  00008E
lob_test@shotp                    cstackBANK0  00008C
lobmain@BatValASCII               cstackBANK1  0001D4
lobmain@cursor1_pos               cstackBANK1  0001D0
lobmain@cursor1_ptr               cstackBANK1  0001DA
lobmain@cursor2_pos               cstackBANK1  0001D2
lobmain@cursor2_ptr               cstackBANK1  0001DC
lobmain@cursor_chk                cstackBANK1  0001BF
lobmain@flg                       cstackBANK1  0001D8
lobmain@i                         cstackBANK1  0001DF
lobmain@key                       cstackBANK1  0001DE
main@BotDelta                     cstackBANK7  0007D9
main@StartFeedTime                cstackBANK7  0007DC
main@TopDelta                     cstackBANK7  0007D7
main@args                         cstackBANK7  0007D4
main@c                            cstackBANK7  0007F7
main@chan                         cstackBANK7  0007F9
main@feed_rate_hs                 cstackBANK7  0007EF
main@i                            cstackBANK7  0007FE
main@i_2558                       cstackBANK7  0007E9
main@j                            cstackBANK7  0007FD
main@j_2559                       cstackBANK7  0007ED
main@k                            cstackBANK7  0007E4
main@key                          cstackBANK7  0007FB
main@rky                          cstackBANK7  0007FC
main@rky2                         cstackBANK7  0007D6
main@startit                      cstackBANK7  0007F8
main@sum                          cstackBANK7  0007DB
main@sweep_offset                 cstackBANK7  0007E5
main@tmp1                         cstackBANK7  0007C8
main@tmp2                         cstackBANK7  0007CC
main@tmp3                         cstackBANK7  0007D0
main@tmp4                         cstackBANK7  0007F3
main@tmp5                         cstackBANK7  0007E0
main@val                          cstackBANK7  0007EB
memset@c                          cstackBANK0  000062
memset@n                          cstackBANK0  000064
memset@p                          cstackBANK0  000066
memset@p1                         cstackBANK0  000060
nofunc@args                       cstackBANK0  000078
nofunc@code                       cstackBANK0  000076
parse_next@cp                     cstackBANK0  00007C
parse_next@delim                  cstackBANK0  00007E
parse_next@np                     cstackBANK0  000084
parse_next@ulp                    cstackBANK0  00007F
poweroff@args                     cstackBANK0  000078
poweroff@code                     cstackBANK0  000076
putrsDIAG@data                    cstackBANK0  000060
putrsXLCD@buffer                  cstackBANK0  000061
puts2USART@data                   cstackBANK0  000061
putsXLCD@buffer                   cstackBANK0  000066
pwm_debug@code                    cstackBANK0  000076
rbuf_init@channo                  cstackBANK0  000062
rbuf_init@rbptr                   cstackBANK0  000060
rbuf_ins@c                        cstackBANK0  000062
rbuf_ins@rbptr                    cstackBANK0  000060
save_prog@eeaddr                  cstackBANK0  00007D
save_prog@i                       cstackBANK0  00007F
save_prog@ppers                   cstackBANK0  000078
save_prog@progno                  cstackBANK0  00007C
serve_method@flags                cstackBANK0  000064
serve_method@hix                  cstackBANK0  000070
serve_method@i                    cstackBANK0  000072
serve_method@locp                 cstackBANK0  000060
serve_method@lox                  cstackBANK0  000071
serve_method@pp                   cstackBANK0  000062
set_serve@botval                  cstackBANK0  000087
set_serve@ixa                     cstackBANK0  000084
set_serve@pp                      cstackBANK0  00007A
set_serve@stmp                    cstackBANK0  000082
set_serve@tmp                     cstackBANK0  00007E
set_serve@topval                  cstackBANK0  000085
setmem@args                       cstackBANK0  000078
setmem@cptr                       cstackBANK0  00007A
show_prog1@field                  cstackBANK0  000086
show_prog1@i                      cstackBANK0  000087
show_prog1@nused                  cstackBANK0  000085
show_prog3@loc                    cstackBANK0  000087
show_prog3@locp                   cstackBANK0  000085
show_progRPM@i                    cstackBANK0  000086
show_progRPM@nused                cstackBANK0  000085
slavecmd@args                     cstackBANK0  000078
slavecmd@c                        cstackBANK0  00007A
slavecmd@code                     cstackBANK0  000076
slavecmd@y                        cstackBANK0  00007B
sm_service@key                    cstackBANK0  000066
sm_service@state                  cstackBANK0  00006D
sm_service_EL04@key               cstackBANK0  000066
sm_service_EL04@state             cstackBANK0  00006D
sm_service_EL05LE2@key            cstackBANK0  000066
sm_service_EL05LE2@state          cstackBANK0  00006D
spitest@args                      cstackBANK0  000078
spitest@code                      cstackBANK0  000076
spitest@data                      cstackBANK0  00007C
srand@x                           cstackBANK0  000060
stackhi                           (abs)        000F5F
stacklo                           (abs)        000A68
start                             init         000018
start_initialization              cinit        01EA98
stop_all@args                     cstackBANK0  000078
stop_all@code                     cstackBANK0  000076
strcat@cp                         cstackBANK0  000064
strcat@from                       cstackBANK0  000062
strcat@to                         cstackBANK0  000060
strchr@chr                        cstackBANK0  000062
strchr@ptr                        cstackBANK0  000060
strcpy@cp                         cstackBANK0  00006B
strcpy@from                       cstackBANK0  000068
strcpy@to                         cstackBANK0  000066
strlen@cp                         cstackBANK0  000062
strlen@s                          cstackBANK0  000060
strncpy@cp                        cstackBANK0  00006C
strncpy@from                      cstackBANK0  000068
strncpy@size                      cstackBANK0  00006A
strncpy@to                        cstackBANK0  000066
sweep_diag@args                   cstackBANK0  000078
sweep_diag@code                   cstackBANK0  000076
top_diag@args                     cstackBANK0  000078
top_diag@code                     cstackBANK0  000076
utoa@base                         cstackBANK0  00006B
utoa@buf                          cstackBANK0  000067
utoa@c                            cstackBANK0  00006F
utoa@v                            cstackBANK0  00006D
utoa@val                          cstackBANK0  000069
varinit@i                         cstackBANK0  000070
varinit@j                         cstackBANK0  00006F
varinit@locp                      cstackBANK0  00006D


FUNCTION INFORMATION:

 *************** function _main *****************
 Defined at:
		line 3409 in file "D:\Users\MichaelZarling\Documents\Lobster\cs020_sw\Master_v1p226p34-XC8\EL04\main\master.c"
 Parameters:    Size  Location     Type
		None
 Auto vars:     Size  Location     Type
  chan            2   49[BANK7 ] int 
  j               2   37[BANK7 ] int 
  val             2   35[BANK7 ] unsigned int 
  i               2   33[BANK7 ] int 
  feed_rate_hs    4   39[BANK7 ] unsigned long 
  StartFeedTim    4   20[BANK7 ] unsigned long 
  oval            2    0        unsigned int 
  glitch          2    0        int 
  tmp4            4   43[BANK7 ] long 
  sweep_offset    4   29[BANK7 ] long 
  tmp5            4   24[BANK7 ] long 
  tmp3            4    8[BANK7 ] unsigned long 
  tmp2            4    4[BANK7 ] unsigned long 
  tmp1            4    0[BANK7 ] unsigned long 
  eecopy          4    0        unsigned long 
  BotDelta        2   17[BANK7 ] int 
  TopDelta        2   15[BANK7 ] int 
  args            2   12[BANK7 ] PTR long 
		 -> main@tmp5(4), 
  i               1   54[BANK7 ] unsigned char 
  j               1   53[BANK7 ] unsigned char 
  rky             1   52[BANK7 ] unsigned char 
  key             1   51[BANK7 ] unsigned char 
  startit         1   48[BANK7 ] unsigned char 
  c               1   47[BANK7 ] unsigned char 
  k               1   28[BANK7 ] unsigned char 
  sum             1   19[BANK7 ] unsigned char 
  rky2            1   14[BANK7 ] unsigned char 
 Return value:  Size  Location     Type
		None               void
 Registers used:
		wreg, fsr0l, fsr0h, fsr1l, fsr1h, fsr2l, fsr2h, status,2, status,0, pclat, tosl, tblptrl, tblptrh, tblptru, prodl, prodh, cstack
 Tracked objects:
		On entry : 
		On exit  : 
		Unchanged: 
 Data sizes:     COMRAM   BANK0   BANK1   BANK2   BANK3   BANK4   BANK5   BANK6   BANK7   BANK8   BANK9  BANK10  BANK11  BANK12  BANK13  BANK14  BANK15
      Params:         0       0       0       0       0       0       0       0       0       0       0       0       0       0       0       0       0
      Locals:         0       0       0       0       0       0       0       0      55       0       0       0       0       0       0       0       0
      Temps:          0       0      10       0       0       0       0       0       0       0       0       0       0       0       0       0       0
      Totals:         0       0      10       0       0       0       0       0      55       0       0       0       0       0       0       0       0
Total ram usage:       65 bytes
 Hardware stack levels required when called:   11
 This function calls:
		_BatteryAverage
		_BuildCmd
		_CalcBotPwm
		_CalcTopPwm
		_CheckBattery
		_ChipDeSelect
		_ChipSelect
		_Delay1KTCYx
		_FeedMtrDone
		_FeedPwm2Sec
		_Read2USART
		_ReadSPI1
		_RemoteSaveDrill
		_SEERead
		_Setup
		_SpeedInRange
		_StartBot
		_StartTop
		_SvcShots
		_UpdBotPer
		_UpdTopPer
		_Write2USART
		___awdiv
		___lbdiv
		___lldiv
		___wmul
		_check_keypad
		_debounce_power_button
		_debounced_remote
		_debounced_remote_USART2
		_dumpaddr
		_dumphex
		_dumplong
		_dumpshort
		_exec_diag
		_itoa
		_load_prog
		_lob_parm
		_lobmain
		_poweroff
		_putrsDIAG
		_puts2USART
		_set_intensity
		_set_serve
		_stop_all
		_strcat
		_strcpy
		_strlen
 This function is called by:
		Startup code after reset
 This function uses a non-reentrant model


 *************** function _strcat *****************
 Defined at:
		line 8 in file "C:\Program Files (x86)\Microchip\xc8\v1.33\sources\common\strcat.c"
 Parameters:    Size  Location     Type
  to              2    0[BANK0 ] PTR unsigned char 
		 -> RemoteString(68), 
  from            2    2[BANK0 ] PTR const unsigned char 
		 -> STR_136(2), STR_135(2), STR_134(2), STR_132(2), 
		 -> STR_131(2), STR_130(2), STR_129(2), STR_128(2), 
		 -> STR_127(2), STR_96(2), STR_94(2), STR_92(2), 
		 -> STR_90(2), STR_53(2), RemoteStringVar(10), lcd_line(68), 
 Auto vars:     Size  Location     Type
  cp              2    4[BANK0 ] PTR unsigned char 
		 -> RemoteString(68), 
 Return value:  Size  Location     Type
                  2    0[BANK0 ] PTR unsigned char 
 Registers used:
		wreg, fsr0l, fsr0h, fsr2l, fsr2h, status,2, status,0, tblptrl, tblptrh, tblptru
 Tracked objects:
		On entry : 
		On exit  : 
		Unchanged: 
 Data sizes:     COMRAM   BANK0   BANK1   BANK2   BANK3   BANK4   BANK5   BANK6   BANK7   BANK8   BANK9  BANK10  BANK11  BANK12  BANK13  BANK14  BANK15
      Params:         0       4       0       0       0       0       0       0       0       0       0       0       0       0       0       0       0
      Locals:         0       2       0       0       0       0       0       0       0       0       0       0       0       0       0       0       0
      Temps:          0       0       0       0       0       0       0       0       0       0       0       0       0       0       0       0       0
      Totals:         0       6       0       0       0       0       0       0       0       0       0       0       0       0       0       0       0
Total ram usage:        6 bytes
 Hardware stack levels used:    1
 Hardware stack levels required when called:    3
 This function calls:
		Nothing
 This function is called by:
		_main
 This function uses a non-reentrant model


 *************** function _lobmain *****************
 Defined at:
		line 2289 in file "D:\Users\MichaelZarling\Documents\Lobster\cs020_sw\Master_v1p226p34-XC8\EL04\main\lobmain.c"
 Parameters:    Size  Location     Type
  key             1    wreg     unsigned char 
 Auto vars:     Size  Location     Type
  key             1   31[BANK1 ] unsigned char 
  cursor_chk     17    0[BANK1 ] unsigned char [17]
  cursor2_ptr     2   29[BANK1 ] PTR unsigned char 
		 -> lobmain@cursor_chk(17), NULL(0), DiagBuf(32), 
  cursor1_ptr     2   27[BANK1 ] PTR unsigned char 
		 -> lobmain@cursor_chk(17), NULL(0), DiagBuf(32), 
  cursor2_pos     2   19[BANK1 ] int 
  cursor1_pos     2   17[BANK1 ] int 
  BatValASCII     4   21[BANK1 ] unsigned char [4]
  i               2   32[BANK1 ] int 
  flg             2   25[BANK1 ] int 
 Return value:  Size  Location     Type
		None               void
 Registers used:
		wreg, fsr0l, fsr0h, fsr1l, fsr1h, fsr2l, fsr2h, status,2, status,0, pclat, tosl, tblptrl, tblptrh, tblptru, prodl, prodh, cstack
 Tracked objects:
		On entry : 
		On exit  : 
		Unchanged: 
 Data sizes:     COMRAM   BANK0   BANK1   BANK2   BANK3   BANK4   BANK5   BANK6   BANK7   BANK8   BANK9  BANK10  BANK11  BANK12  BANK13  BANK14  BANK15
      Params:         0       0       0       0       0       0       0       0       0       0       0       0       0       0       0       0       0
      Locals:         0       0      34       0       0       0       0       0       0       0       0       0       0       0       0       0       0
      Temps:          0       8       0       0       0       0       0       0       0       0       0       0       0       0       0       0       0
      Totals:         0       8      34       0       0       0       0       0       0       0       0       0       0       0       0       0       0
Total ram usage:       42 bytes
 Hardware stack levels used:    1
 Hardware stack levels required when called:   10
 This function calls:
		_BuildCmd
		_BusyXLCD
		_SetDDRamAddr
		___lmul
		___wmul
		_itoa
		_lob_abort
		_lob_error
		_lob_idle
		_lob_manual
		_lob_play
		_lob_preset
		_lob_program
		_lob_sleep
		_lob_test
		_putrsXLCD
		_putsXLCD
		_sm_service
		_sm_service_EL04
		_sm_service_EL05LE2
		_strchr
		_strcpy
		_strlen
 This function is called by:
		_main
 This function uses a non-reentrant model


 *************** function _putsXLCD *****************
 Defined at:
		line 17 in file "D:\Users\MichaelZarling\Documents\Lobster\cs020_sw\Master_v1p226p34-XC8\EL04\main\..\xlcd\putsxlcd.c"
 Parameters:    Size  Location     Type
  buffer          2    6[BANK0 ] PTR unsigned char 
		 -> lobmain@cursor_chk(17), lcd_line(68), 
 Auto vars:     Size  Location     Type
		None
 Return value:  Size  Location     Type
		None               void
 Registers used:
		wreg, fsr2l, fsr2h, status,2, status,0, cstack
 Tracked objects:
		On entry : 
		On exit  : 
		Unchanged: 
 Data sizes:     COMRAM   BANK0   BANK1   BANK2   BANK3   BANK4   BANK5   BANK6   BANK7   BANK8   BANK9  BANK10  BANK11  BANK12  BANK13  BANK14  BANK15
      Params:         0       2       0       0       0       0       0       0       0       0       0       0       0       0       0       0       0
      Locals:         0       0       0       0       0       0       0       0       0       0       0       0       0       0       0       0       0
      Temps:          0       0       0       0       0       0       0       0       0       0       0       0       0       0       0       0       0
      Totals:         0       2       0       0       0       0       0       0       0       0       0       0       0       0       0       0       0
Total ram usage:        2 bytes
 Hardware stack levels used:    1
 Hardware stack levels required when called:    5
 This function calls:
		_BusyXLCD
		_WriteDataXLCD
 This function is called by:
		_lobmain
 This function uses a non-reentrant model


 *************** function _putrsXLCD *****************
 Defined at:
		line 17 in file "D:\Users\MichaelZarling\Documents\Lobster\cs020_sw\Master_v1p226p34-XC8\EL04\main\..\xlcd\putrxlcd.c"
 Parameters:    Size  Location     Type
  buffer          2    1[BANK0 ] PTR const unsigned char 
		 -> STR_282(17), STR_281(9), STR_280(8), STR_279(7), 
		 -> STR_278(6), STR_277(17), STR_276(17), lobmain@BatValASCII(4), 
		 -> STR_275(17), 
 Auto vars:     Size  Location     Type
		None
 Return value:  Size  Location     Type
		None               void
 Registers used:
		wreg, fsr0l, fsr0h, status,2, status,0, tblptrl, tblptrh, tblptru, cstack
 Tracked objects:
		On entry : 
		On exit  : 
		Unchanged: 
 Data sizes:     COMRAM   BANK0   BANK1   BANK2   BANK3   BANK4   BANK5   BANK6   BANK7   BANK8   BANK9  BANK10  BANK11  BANK12  BANK13  BANK14  BANK15
      Params:         0       2       0       0       0       0       0       0       0       0       0       0       0       0       0       0       0
      Locals:         0       0       0       0       0       0       0       0       0       0       0       0       0       0       0       0       0
      Temps:          0       0       0       0       0       0       0       0       0       0       0       0       0       0       0       0       0
      Totals:         0       2       0       0       0       0       0       0       0       0       0       0       0       0       0       0       0
Total ram usage:        2 bytes
 Hardware stack levels used:    1
 Hardware stack levels required when called:    5
 This function calls:
		_BusyXLCD
		_WriteDataXLCD
 This function is called by:
		_lobmain
 This function uses a non-reentrant model


 *************** function _WriteDataXLCD *****************
 Defined at:
		line 17 in file "D:\Users\MichaelZarling\Documents\Lobster\cs020_sw\Master_v1p226p34-XC8\EL04\main\..\xlcd\writdata.c"
 Parameters:    Size  Location     Type
  data            1    wreg     unsigned char 
 Auto vars:     Size  Location     Type
  data            1    0[BANK0 ] unsigned char 
 Return value:  Size  Location     Type
		None               void
 Registers used:
		wreg, cstack
 Tracked objects:
		On entry : 
		On exit  : 
		Unchanged: 
 Data sizes:     COMRAM   BANK0   BANK1   BANK2   BANK3   BANK4   BANK5   BANK6   BANK7   BANK8   BANK9  BANK10  BANK11  BANK12  BANK13  BANK14  BANK15
      Params:         0       0       0       0       0       0       0       0       0       0       0       0       0       0       0       0       0
      Locals:         0       1       0       0       0       0       0       0       0       0       0       0       0       0       0       0       0
      Temps:          0       0       0       0       0       0       0       0       0       0       0       0       0       0       0       0       0
      Totals:         0       1       0       0       0       0       0       0       0       0       0       0       0       0       0       0       0
Total ram usage:        1 bytes
 Hardware stack levels used:    1
 Hardware stack levels required when called:    4
 This function calls:
		_DelayFor18TCY
 This function is called by:
		_putrsXLCD
		_putsXLCD
 This function uses a non-reentrant model


 *************** function _lob_abort *****************
 Defined at:
		line 2063 in file "D:\Users\MichaelZarling\Documents\Lobster\cs020_sw\Master_v1p226p34-XC8\EL04\main\lobmain.c"
 Parameters:    Size  Location     Type
  cmd             1    wreg     unsigned char 
 Auto vars:     Size  Location     Type
  cmd             1   31[BANK0 ] unsigned char 
 Return value:  Size  Location     Type
                  1    wreg      unsigned char 
 Registers used:
		wreg, fsr2l, fsr2h, status,2, status,0, tblptrl, tblptrh, tblptru, prodl, prodh, cstack
 Tracked objects:
		On entry : 
		On exit  : 
		Unchanged: 
 Data sizes:     COMRAM   BANK0   BANK1   BANK2   BANK3   BANK4   BANK5   BANK6   BANK7   BANK8   BANK9  BANK10  BANK11  BANK12  BANK13  BANK14  BANK15
      Params:         0       0       0       0       0       0       0       0       0       0       0       0       0       0       0       0       0
      Locals:         0       1       0       0       0       0       0       0       0       0       0       0       0       0       0       0       0
      Temps:          0       0       0       0       0       0       0       0       0       0       0       0       0       0       0       0       0
      Totals:         0       1       0       0       0       0       0       0       0       0       0       0       0       0       0       0       0
Total ram usage:        1 bytes
 Hardware stack levels used:    1
 Hardware stack levels required when called:    8
 This function calls:
		_abort_shot
		_sm_service
		_sm_service_EL04
		_sm_service_EL05LE2
 This function is called by:
		_lobmain
 This function uses a non-reentrant model


 *************** function _lob_play *****************
 Defined at:
		line 786 in file "D:\Users\MichaelZarling\Documents\Lobster\cs020_sw\Master_v1p226p34-XC8\EL04\main\lobmain.c"
 Parameters:    Size  Location     Type
  cmd             1    wreg     unsigned char 
 Auto vars:     Size  Location     Type
  cmd             1  101[BANK0 ] unsigned char 
  tmpix           2   97[BANK0 ] unsigned short 
  pp              2  106[BANK0 ] PTR struct parm
		 -> manual(9), preset(144), 
  shotp           2  104[BANK0 ] PTR const struct el04_lo
		 -> Lefty_locs(60), Slicer_locs(60), Moonballer_locs(60), Advanced_locs(60), 
		 -> Intermediate_locs(60), Beginner_locs(60), foreonly_locs(60), attdef_locs(60), 
		 -> transition_locs(60), allcourt_locs(60), power_locs(60), grinder_locs(60), 
		 -> court_locs(9000), 
  rnd             2   99[BANK0 ] unsigned short 
  method          1  103[BANK0 ] unsigned char 
  premode         1  102[BANK0 ] unsigned char 
 Return value:  Size  Location     Type
                  1    wreg      unsigned char 
 Registers used:
		wreg, fsr0l, fsr0h, fsr1l, fsr1h, fsr2l, fsr2h, status,2, status,0, tblptrl, tblptrh, tblptru, prodl, prodh, cstack
 Tracked objects:
		On entry : 
		On exit  : 
		Unchanged: 
 Data sizes:     COMRAM   BANK0   BANK1   BANK2   BANK3   BANK4   BANK5   BANK6   BANK7   BANK8   BANK9  BANK10  BANK11  BANK12  BANK13  BANK14  BANK15
      Params:         0       0       0       0       0       0       0       0       0       0       0       0       0       0       0       0       0
      Locals:         0      13       0       0       0       0       0       0       0       0       0       0       0       0       0       0       0
      Temps:          0       6       0       0       0       0       0       0       0       0       0       0       0       0       0       0       0
      Totals:         0      19       0       0       0       0       0       0       0       0       0       0       0       0       0       0       0
Total ram usage:       19 bytes
 Hardware stack levels used:    1
 Hardware stack levels required when called:    9
 This function calls:
		_BuildCmd
		_SetFeedRate
		_StartFeedCont
		___awdiv
		___awmod
		___lwdiv
		___lwmod
		___wmul
		_build_curshot
		_dumphex
		_dumplong
		_dumpshort
		_limit_method
		_lob_parm
		_putrsDIAG
		_rand
		_serve_method
		_set_serve
		_show_prog1
		_srand
 This function is called by:
		_lobmain
 This function uses a non-reentrant model


 *************** function _lob_manual *****************
 Defined at:
		line 412 in file "D:\Users\MichaelZarling\Documents\Lobster\cs020_sw\Master_v1p226p34-XC8\EL04\main\lobmain.c"
 Parameters:    Size  Location     Type
  cmd             1    wreg     unsigned char 
 Auto vars:     Size  Location     Type
  cmd             1   95[BANK0 ] unsigned char 
  arg             4   96[BANK0 ] long 
  ang             4    0        long 
  pparm           2   93[BANK0 ] PTR char 
		 -> manual(9), 
 Return value:  Size  Location     Type
                  1    wreg      unsigned char 
 Registers used:
		wreg, fsr0l, fsr0h, fsr1l, fsr1h, fsr2l, fsr2h, status,2, status,0, tblptrl, tblptrh, tblptru, prodl, prodh, cstack
 Tracked objects:
		On entry : 
		On exit  : 
		Unchanged: 
 Data sizes:     COMRAM   BANK0   BANK1   BANK2   BANK3   BANK4   BANK5   BANK6   BANK7   BANK8   BANK9  BANK10  BANK11  BANK12  BANK13  BANK14  BANK15
      Params:         0       0       0       0       0       0       0       0       0       0       0       0       0       0       0       0       0
      Locals:         0       7       0       0       0       0       0       0       0       0       0       0       0       0       0       0       0
      Temps:          0       4       0       0       0       0       0       0       0       0       0       0       0       0       0       0       0
      Totals:         0      11       0       0       0       0       0       0       0       0       0       0       0       0       0       0       0
Total ram usage:       11 bytes
 Hardware stack levels used:    1
 Hardware stack levels required when called:    9
 This function calls:
		_BuildCmd
		_Delay1KTCYx
		_clear_lcd
		_dumphex
		_dumpshort
		_lob_parm
		_putrsDIAG
		_set_serve
 This function is called by:
		_lobmain
 This function uses a non-reentrant model


 *************** function _lob_idle *****************
 Defined at:
		line 321 in file "D:\Users\MichaelZarling\Documents\Lobster\cs020_sw\Master_v1p226p34-XC8\EL04\main\lobmain.c"
 Parameters:    Size  Location     Type
  cmd             1    wreg     unsigned char 
 Auto vars:     Size  Location     Type
  cmd             1    0[COMRAM] unsigned char 
  ky              1   24[BANK0 ] unsigned char 
 Return value:  Size  Location     Type
                  1    wreg      unsigned char 
 Registers used:
		wreg, fsr0l, fsr0h, fsr2l, fsr2h, status,2, status,0, tblptrl, tblptrh, tblptru, prodl, prodh, cstack
 Tracked objects:
		On entry : 
		On exit  : 
		Unchanged: 
 Data sizes:     COMRAM   BANK0   BANK1   BANK2   BANK3   BANK4   BANK5   BANK6   BANK7   BANK8   BANK9  BANK10  BANK11  BANK12  BANK13  BANK14  BANK15
      Params:         0       0       0       0       0       0       0       0       0       0       0       0       0       0       0       0       0
      Locals:         0       1       0       0       0       0       0       0       0       0       0       0       0       0       0       0       0
      Temps:          0       2       0       0       0       0       0       0       0       0       0       0       0       0       0       0       0
      Totals:         0       3       0       0       0       0       0       0       0       0       0       0       0       0       0       0       0
Total ram usage:        3 bytes
 Hardware stack levels used:    1
 Hardware stack levels required when called:    5
 This function calls:
		_BuildCmd
		_StopFeedMtr
		_sm_service
		_sm_service_EL04
		_sm_service_EL05LE2
		_strcpy
 This function is called by:
		_lobmain
 This function uses a non-reentrant model


 *************** function _lob_sleep *****************
 Defined at:
		line 307 in file "D:\Users\MichaelZarling\Documents\Lobster\cs020_sw\Master_v1p226p34-XC8\EL04\main\lobmain.c"
 Parameters:    Size  Location     Type
  cmd             1    wreg     unsigned char 
 Auto vars:     Size  Location     Type
  cmd             1    0[BANK0 ] unsigned char 
 Return value:  Size  Location     Type
                  1    wreg      unsigned char 
 Registers used:
		wreg
 Tracked objects:
		On entry : 
		On exit  : 
		Unchanged: 
 Data sizes:     COMRAM   BANK0   BANK1   BANK2   BANK3   BANK4   BANK5   BANK6   BANK7   BANK8   BANK9  BANK10  BANK11  BANK12  BANK13  BANK14  BANK15
      Params:         0       0       0       0       0       0       0       0       0       0       0       0       0       0       0       0       0
      Locals:         0       1       0       0       0       0       0       0       0       0       0       0       0       0       0       0       0
      Temps:          0       0       0       0       0       0       0       0       0       0       0       0       0       0       0       0       0
      Totals:         0       1       0       0       0       0       0       0       0       0       0       0       0       0       0       0       0
Total ram usage:        1 bytes
 Hardware stack levels used:    1
 Hardware stack levels required when called:    3
 This function calls:
		Nothing
 This function is called by:
		_lobmain
 This function uses a non-reentrant model


 *************** function _lob_program *****************
 Defined at:
		line 589 in file "D:\Users\MichaelZarling\Documents\Lobster\cs020_sw\Master_v1p226p34-XC8\EL04\main\lobprog.c"
 Parameters:    Size  Location     Type
  cmd             1    wreg     unsigned char 
 Auto vars:     Size  Location     Type
  cmd             1   57[BANK0 ] unsigned char 
  method          1   59[BANK0 ] unsigned char 
  val2            1   58[BANK0 ] char 
  locno           1   56[BANK0 ] unsigned char 
  val             1   55[BANK0 ] unsigned char 
  i               1    0        unsigned char 
  origix          1    0        char 
 Return value:  Size  Location     Type
                  1    wreg      unsigned char 
 Registers used:
		wreg, fsr0l, fsr0h, fsr1l, fsr1h, fsr2l, fsr2h, status,2, status,0, tblptrl, tblptrh, tblptru, prodl, prodh, cstack
 Tracked objects:
		On entry : 
		On exit  : 
		Unchanged: 
 Data sizes:     COMRAM   BANK0   BANK1   BANK2   BANK3   BANK4   BANK5   BANK6   BANK7   BANK8   BANK9  BANK10  BANK11  BANK12  BANK13  BANK14  BANK15
      Params:         0       0       0       0       0       0       0       0       0       0       0       0       0       0       0       0       0
      Locals:         0       7       0       0       0       0       0       0       0       0       0       0       0       0       0       0       0
      Temps:          0       5       0       0       0       0       0       0       0       0       0       0       0       0       0       0       0
      Totals:         0      12       0       0       0       0       0       0       0       0       0       0       0       0       0       0       0
Total ram usage:       12 bytes
 Hardware stack levels used:    1
 Hardware stack levels required when called:    8
 This function calls:
		_BuildCmd
		___wmul
		_dumphex
		_get60mph0spin
		_getLocAvail
		_load_prog
		_putrsDIAG
		_show_prog1
		_show_prog2
		_show_prog3
		_show_progRPM
 This function is called by:
		_lobmain
 This function uses a non-reentrant model


 *************** function _lob_preset *****************
 Defined at:
		line 228 in file "D:\Users\MichaelZarling\Documents\Lobster\cs020_sw\Master_v1p226p34-XC8\EL04\main\lobpre.c"
 Parameters:    Size  Location     Type
  cmd             1    wreg     unsigned char 
 Auto vars:     Size  Location     Type
  cmd             1   99[BANK0 ] unsigned char 
  i               2   97[BANK0 ] int 
  pix             2   95[BANK0 ] PTR unsigned char 
		 -> preset_ix(16), 
  pparmx          2   93[BANK0 ] PTR unsigned char 
		 -> preset(144), 
  keep_motors     1    0        unsigned char 
 Return value:  Size  Location     Type
                  1    wreg      unsigned char 
 Registers used:
		wreg, fsr0l, fsr0h, fsr1l, fsr1h, fsr2l, fsr2h, status,2, status,0, tblptrl, tblptrh, tblptru, prodl, prodh, cstack
 Tracked objects:
		On entry : 
		On exit  : 
		Unchanged: 
 Data sizes:     COMRAM   BANK0   BANK1   BANK2   BANK3   BANK4   BANK5   BANK6   BANK7   BANK8   BANK9  BANK10  BANK11  BANK12  BANK13  BANK14  BANK15
      Params:         0       0       0       0       0       0       0       0       0       0       0       0       0       0       0       0       0
      Locals:         0       7       0       0       0       0       0       0       0       0       0       0       0       0       0       0       0
      Temps:          0       4       0       0       0       0       0       0       0       0       0       0       0       0       0       0       0
      Totals:         0      11       0       0       0       0       0       0       0       0       0       0       0       0       0       0       0
Total ram usage:       11 bytes
 Hardware stack levels used:    1
 Hardware stack levels required when called:    9
 This function calls:
		_BuildCmd
		_dumphex
		_lob_parm
		_putrsDIAG
		_puts2USART
		_save_prog
		_set_serve
 This function is called by:
		_lobmain
 This function uses a non-reentrant model


 *************** function _lob_test *****************
 Defined at:
		line 2101 in file "D:\Users\MichaelZarling\Documents\Lobster\cs020_sw\Master_v1p226p34-XC8\EL04\main\lobmain.c"
 Parameters:    Size  Location     Type
  cmd             1    wreg     unsigned char 
 Auto vars:     Size  Location     Type
  cmd             1   43[BANK0 ] unsigned char 
  ft              2   46[BANK0 ] unsigned short 
  shotp           2   44[BANK0 ] PTR const struct el04_lo
		 -> test_loc(10), 
  changed         2   41[BANK0 ] int 
 Return value:  Size  Location     Type
                  1    wreg      unsigned char 
 Registers used:
		wreg, fsr0l, fsr0h, fsr2l, fsr2h, status,2, status,0, tblptrl, tblptrh, tblptru, prodl, prodh, cstack
 Tracked objects:
		On entry : 
		On exit  : 
		Unchanged: 
 Data sizes:     COMRAM   BANK0   BANK1   BANK2   BANK3   BANK4   BANK5   BANK6   BANK7   BANK8   BANK9  BANK10  BANK11  BANK12  BANK13  BANK14  BANK15
      Params:         0       0       0       0       0       0       0       0       0       0       0       0       0       0       0       0       0
      Locals:         0      11       0       0       0       0       0       0       0       0       0       0       0       0       0       0       0
      Temps:          0       5       0       0       0       0       0       0       0       0       0       0       0       0       0       0       0
      Totals:         0      16       0       0       0       0       0       0       0       0       0       0       0       0       0       0       0
Total ram usage:       16 bytes
 Hardware stack levels used:    1
 Hardware stack levels required when called:    7
 This function calls:
		_BuildCmd
		_DisableSlaveSPI
		_EnableSlaveSPI
		_SEEWrite
		_SetFeedRate
		___lwdiv
		___lwmod
		___wmul
		_clear_lcd
		_dumplong
		_putrsDIAG
		_save_prog
		_sm_service
		_sm_service_EL04
		_sm_service_EL05LE2
		_strcpy
 This function is called by:
		_lobmain
 This function uses a non-reentrant model


 *************** function _show_progRPM *****************
 Defined at:
		line 546 in file "D:\Users\MichaelZarling\Documents\Lobster\cs020_sw\Master_v1p226p34-XC8\EL04\main\lobprog.c"
 Parameters:    Size  Location     Type
  field           1    wreg     unsigned char 
 Auto vars:     Size  Location     Type
  field           1    0[COMRAM] unsigned char 
  i               1   38[BANK0 ] unsigned char 
  nused           1   37[BANK0 ] unsigned char 
 Return value:  Size  Location     Type
                  1    wreg      unsigned char 
 Registers used:
		wreg, fsr0l, fsr0h, fsr2l, fsr2h, status,2, status,0, tblptrl, tblptrh, tblptru, prodl, prodh, cstack
 Tracked objects:
		On entry : 
		On exit  : 
		Unchanged: 
 Data sizes:     COMRAM   BANK0   BANK1   BANK2   BANK3   BANK4   BANK5   BANK6   BANK7   BANK8   BANK9  BANK10  BANK11  BANK12  BANK13  BANK14  BANK15
      Params:         0       0       0       0       0       0       0       0       0       0       0       0       0       0       0       0       0
      Locals:         0       2       0       0       0       0       0       0       0       0       0       0       0       0       0       0       0
      Temps:          0       2       0       0       0       0       0       0       0       0       0       0       0       0       0       0       0
      Totals:         0       4       0       0       0       0       0       0       0       0       0       0       0       0       0       0       0
Total ram usage:        4 bytes
 Hardware stack levels used:    1
 Hardware stack levels required when called:    5
 This function calls:
		_chartoa
		_strcpy
 This function is called by:
		_lob_program
 This function uses a non-reentrant model


 *************** function _show_prog3 *****************
 Defined at:
		line 459 in file "D:\Users\MichaelZarling\Documents\Lobster\cs020_sw\Master_v1p226p34-XC8\EL04\main\lobprog.c"
 Parameters:    Size  Location     Type
		None
 Auto vars:     Size  Location     Type
  locp            2   37[BANK0 ] PTR const struct el04_lo
		 -> court_locs(9000), 
  loc             1   39[BANK0 ] unsigned char 
 Return value:  Size  Location     Type
		None               void
 Registers used:
		wreg, fsr0l, fsr0h, fsr2l, fsr2h, status,2, status,0, tblptrl, tblptrh, tblptru, prodl, prodh, cstack
 Tracked objects:
		On entry : 
		On exit  : 
		Unchanged: 
 Data sizes:     COMRAM   BANK0   BANK1   BANK2   BANK3   BANK4   BANK5   BANK6   BANK7   BANK8   BANK9  BANK10  BANK11  BANK12  BANK13  BANK14  BANK15
      Params:         0       0       0       0       0       0       0       0       0       0       0       0       0       0       0       0       0
      Locals:         0       3       0       0       0       0       0       0       0       0       0       0       0       0       0       0       0
      Temps:          0       2       0       0       0       0       0       0       0       0       0       0       0       0       0       0       0
      Totals:         0       5       0       0       0       0       0       0       0       0       0       0       0       0       0       0       0
Total ram usage:        5 bytes
 Hardware stack levels used:    1
 Hardware stack levels required when called:    5
 This function calls:
		___lbdiv
		___wmul
		_chartoa
		_dumphex
		_putrsDIAG
		_strcpy
		_strncpy
 This function is called by:
		_lob_program
 This function uses a non-reentrant model


 *************** function _show_prog2 *****************
 Defined at:
		line 430 in file "D:\Users\MichaelZarling\Documents\Lobster\cs020_sw\Master_v1p226p34-XC8\EL04\main\lobprog.c"
 Parameters:    Size  Location     Type
		None
 Auto vars:     Size  Location     Type
		None
 Return value:  Size  Location     Type
		None               void
 Registers used:
		wreg, fsr0l, fsr0h, fsr2l, fsr2h, status,2, status,0, tblptrl, tblptrh, tblptru, prodl, prodh, cstack
 Tracked objects:
		On entry : 
		On exit  : 
		Unchanged: 
 Data sizes:     COMRAM   BANK0   BANK1   BANK2   BANK3   BANK4   BANK5   BANK6   BANK7   BANK8   BANK9  BANK10  BANK11  BANK12  BANK13  BANK14  BANK15
      Params:         0       0       0       0       0       0       0       0       0       0       0       0       0       0       0       0       0
      Locals:         0       0       0       0       0       0       0       0       0       0       0       0       0       0       0       0       0
      Temps:          0       2       0       0       0       0       0       0       0       0       0       0       0       0       0       0       0
      Totals:         0       2       0       0       0       0       0       0       0       0       0       0       0       0       0       0       0
Total ram usage:        2 bytes
 Hardware stack levels used:    1
 Hardware stack levels required when called:    5
 This function calls:
		_chartoa
		_strcpy
 This function is called by:
		_lob_program
 This function uses a non-reentrant model


 *************** function _load_prog *****************
 Defined at:
		line 172 in file "D:\Users\MichaelZarling\Documents\Lobster\cs020_sw\Master_v1p226p34-XC8\EL04\main\lobeeprom.c"
 Parameters:    Size  Location     Type
  progno          1    wreg     char 
  ppers           2   32[BANK0 ] PTR struct persprog
		 -> act_program(91), 
 Auto vars:     Size  Location     Type
  progno          1   44[BANK0 ] char 
  eeaddr          2   45[BANK0 ] int 
  ppErr           2   41[BANK0 ] int 
  i               1   47[BANK0 ] unsigned char 
  spd             1   43[BANK0 ] unsigned char 
  spn             1   40[BANK0 ] char 
 Return value:  Size  Location     Type
                  1    wreg      unsigned char 
 Registers used:
		wreg, fsr2l, fsr2h, status,2, status,0, tblptrl, tblptrh, tblptru, prodl, prodh, cstack
 Tracked objects:
		On entry : 
		On exit  : 
		Unchanged: 
 Data sizes:     COMRAM   BANK0   BANK1   BANK2   BANK3   BANK4   BANK5   BANK6   BANK7   BANK8   BANK9  BANK10  BANK11  BANK12  BANK13  BANK14  BANK15
      Params:         0       2       0       0       0       0       0       0       0       0       0       0       0       0       0       0       0
      Locals:         0       8       0       0       0       0       0       0       0       0       0       0       0       0       0       0       0
      Temps:          0       6       0       0       0       0       0       0       0       0       0       0       0       0       0       0       0
      Totals:         0      16       0       0       0       0       0       0       0       0       0       0       0       0       0       0       0
Total ram usage:       16 bytes
 Hardware stack levels used:    1
 Hardware stack levels required when called:    7
 This function calls:
		_DisableSlaveSPI
		_EnableSlaveSPI
		_SEERead
		___lbmod
		___wmul
		_putrsDIAG
		_save_prog
 This function is called by:
		_main
		_lob_program
 This function uses a non-reentrant model


 *************** function ___lbmod *****************
 Defined at:
		line 4 in file "C:\Program Files (x86)\Microchip\xc8\v1.33\sources\common\lbmod.c"
 Parameters:    Size  Location     Type
  dividend        1    wreg     unsigned char 
  divisor         1    0[BANK0 ] unsigned char 
 Auto vars:     Size  Location     Type
  dividend        1    1[BANK0 ] unsigned char 
  rem             1    3[BANK0 ] unsigned char 
  counter         1    2[BANK0 ] unsigned char 
 Return value:  Size  Location     Type
                  1    wreg      unsigned char 
 Registers used:
		wreg, status,2, status,0
 Tracked objects:
		On entry : 
		On exit  : 
		Unchanged: 
 Data sizes:     COMRAM   BANK0   BANK1   BANK2   BANK3   BANK4   BANK5   BANK6   BANK7   BANK8   BANK9  BANK10  BANK11  BANK12  BANK13  BANK14  BANK15
      Params:         0       1       0       0       0       0       0       0       0       0       0       0       0       0       0       0       0
      Locals:         0       3       0       0       0       0       0       0       0       0       0       0       0       0       0       0       0
      Temps:          0       0       0       0       0       0       0       0       0       0       0       0       0       0       0       0       0
      Totals:         0       4       0       0       0       0       0       0       0       0       0       0       0       0       0       0       0
Total ram usage:        4 bytes
 Hardware stack levels used:    1
 Hardware stack levels required when called:    3
 This function calls:
		Nothing
 This function is called by:
		_load_prog
 This function uses a non-reentrant model


 *************** function _getLocAvail *****************
 Defined at:
		line 850 in file "D:\Users\MichaelZarling\Documents\Lobster\cs020_sw\Master_v1p226p34-XC8\EL04\main\lobparm.c"
 Parameters:    Size  Location     Type
  locNo           1    wreg     unsigned char 
  spd             1    6[BANK0 ] unsigned char 
  spn             1    7[BANK0 ] char 
  pmeth           1    8[BANK0 ] PTR unsigned char 
		 -> lob_program@method(1), 
 Auto vars:     Size  Location     Type
  locNo           1   11[BANK0 ] unsigned char 
  locp            2   12[BANK0 ] PTR const struct el04_lo
		 -> court_locs(9000), 
  method          1   14[BANK0 ] char 
 Return value:  Size  Location     Type
                  1    wreg      unsigned char 
 Registers used:
		wreg, fsr2l, fsr2h, status,2, status,0, tblptrl, tblptrh, tblptru, prodl, prodh, cstack
 Tracked objects:
		On entry : 
		On exit  : 
		Unchanged: 
 Data sizes:     COMRAM   BANK0   BANK1   BANK2   BANK3   BANK4   BANK5   BANK6   BANK7   BANK8   BANK9  BANK10  BANK11  BANK12  BANK13  BANK14  BANK15
      Params:         0       3       0       0       0       0       0       0       0       0       0       0       0       0       0       0       0
      Locals:         0       4       0       0       0       0       0       0       0       0       0       0       0       0       0       0       0
      Temps:          0       2       0       0       0       0       0       0       0       0       0       0       0       0       0       0       0
      Totals:         0       9       0       0       0       0       0       0       0       0       0       0       0       0       0       0       0
Total ram usage:        9 bytes
 Hardware stack levels used:    1
 Hardware stack levels required when called:    4
 This function calls:
		___wmul
 This function is called by:
		_lob_program
 This function uses a non-reentrant model


 *************** function _get60mph0spin *****************
 Defined at:
		line 261 in file "D:\Users\MichaelZarling\Documents\Lobster\cs020_sw\Master_v1p226p34-XC8\EL04\main\lobprog.c"
 Parameters:    Size  Location     Type
  loc             1    wreg     unsigned char 
 Auto vars:     Size  Location     Type
  loc             1   10[BANK0 ] unsigned char 
  i               1   11[BANK0 ] unsigned char 
 Return value:  Size  Location     Type
                  1    wreg      unsigned char 
 Registers used:
		wreg, status,2, status,0, tblptrl, tblptrh, tblptru, prodl, prodh, cstack
 Tracked objects:
		On entry : 
		On exit  : 
		Unchanged: 
 Data sizes:     COMRAM   BANK0   BANK1   BANK2   BANK3   BANK4   BANK5   BANK6   BANK7   BANK8   BANK9  BANK10  BANK11  BANK12  BANK13  BANK14  BANK15
      Params:         0       0       0       0       0       0       0       0       0       0       0       0       0       0       0       0       0
      Locals:         0       4       0       0       0       0       0       0       0       0       0       0       0       0       0       0       0
      Temps:          0       2       0       0       0       0       0       0       0       0       0       0       0       0       0       0       0
      Totals:         0       6       0       0       0       0       0       0       0       0       0       0       0       0       0       0       0
Total ram usage:        6 bytes
 Hardware stack levels used:    1
 Hardware stack levels required when called:    4
 This function calls:
		___wmul
 This function is called by:
		_lob_program
 This function uses a non-reentrant model


 *************** function _puts2USART *****************
 Defined at:
		line 15 in file "C:\Program Files (x86)\Microchip\xc8\v1.33\sources\pic18\plib\USART\u2puts.c"
 Parameters:    Size  Location     Type
  data            2    1[BANK0 ] PTR unsigned char 
		 -> RemoteString(68), 
 Auto vars:     Size  Location     Type
		None
 Return value:  Size  Location     Type
		None               void
 Registers used:
		wreg, fsr2l, fsr2h, status,2, status,0, cstack
 Tracked objects:
		On entry : 
		On exit  : 
		Unchanged: 
 Data sizes:     COMRAM   BANK0   BANK1   BANK2   BANK3   BANK4   BANK5   BANK6   BANK7   BANK8   BANK9  BANK10  BANK11  BANK12  BANK13  BANK14  BANK15
      Params:         0       2       0       0       0       0       0       0       0       0       0       0       0       0       0       0       0
      Locals:         0       0       0       0       0       0       0       0       0       0       0       0       0       0       0       0       0
      Temps:          0       0       0       0       0       0       0       0       0       0       0       0       0       0       0       0       0
      Totals:         0       2       0       0       0       0       0       0       0       0       0       0       0       0       0       0       0
Total ram usage:        2 bytes
 Hardware stack levels used:    1
 Hardware stack levels required when called:    4
 This function calls:
		_Write2USART
 This function is called by:
		_main
		_lob_preset
 This function uses a non-reentrant model


 *************** function _Write2USART *****************
 Defined at:
		line 15 in file "C:\Program Files (x86)\Microchip\xc8\v1.33\sources\pic18\plib\USART\u2write.c"
 Parameters:    Size  Location     Type
  data            1    wreg     unsigned char 
 Auto vars:     Size  Location     Type
  data            1    0[BANK0 ] unsigned char 
 Return value:  Size  Location     Type
		None               void
 Registers used:
		wreg
 Tracked objects:
		On entry : 
		On exit  : 
		Unchanged: 
 Data sizes:     COMRAM   BANK0   BANK1   BANK2   BANK3   BANK4   BANK5   BANK6   BANK7   BANK8   BANK9  BANK10  BANK11  BANK12  BANK13  BANK14  BANK15
      Params:         0       0       0       0       0       0       0       0       0       0       0       0       0       0       0       0       0
      Locals:         0       1       0       0       0       0       0       0       0       0       0       0       0       0       0       0       0
      Temps:          0       0       0       0       0       0       0       0       0       0       0       0       0       0       0       0       0
      Totals:         0       1       0       0       0       0       0       0       0       0       0       0       0       0       0       0       0
Total ram usage:        1 bytes
 Hardware stack levels used:    1
 Hardware stack levels required when called:    3
 This function calls:
		Nothing
 This function is called by:
		_main
		_puts2USART
 This function uses a non-reentrant model


 *************** function _show_prog1 *****************
 Defined at:
		line 348 in file "D:\Users\MichaelZarling\Documents\Lobster\cs020_sw\Master_v1p226p34-XC8\EL04\main\lobprog.c"
 Parameters:    Size  Location     Type
  field           1    wreg     unsigned char 
 Auto vars:     Size  Location     Type
  field           1   38[BANK0 ] unsigned char 
  i               1   39[BANK0 ] unsigned char 
  nused           1   37[BANK0 ] unsigned char 
 Return value:  Size  Location     Type
                  1    wreg      unsigned char 
 Registers used:
		wreg, fsr0l, fsr0h, fsr2l, fsr2h, status,2, status,0, tblptrl, tblptrh, tblptru, prodl, prodh, cstack
 Tracked objects:
		On entry : 
		On exit  : 
		Unchanged: 
 Data sizes:     COMRAM   BANK0   BANK1   BANK2   BANK3   BANK4   BANK5   BANK6   BANK7   BANK8   BANK9  BANK10  BANK11  BANK12  BANK13  BANK14  BANK15
      Params:         0       0       0       0       0       0       0       0       0       0       0       0       0       0       0       0       0
      Locals:         0       3       0       0       0       0       0       0       0       0       0       0       0       0       0       0       0
      Temps:          0       2       0       0       0       0       0       0       0       0       0       0       0       0       0       0       0
      Totals:         0       5       0       0       0       0       0       0       0       0       0       0       0       0       0       0       0
Total ram usage:        5 bytes
 Hardware stack levels used:    1
 Hardware stack levels required when called:    5
 This function calls:
		_chartoa
		_dumphex
		_putrsDIAG
		_strcpy
 This function is called by:
		_lob_play
		_lob_program
 This function uses a non-reentrant model


 *************** function _serve_method *****************
 Defined at:
		line 741 in file "D:\Users\MichaelZarling\Documents\Lobster\cs020_sw\Master_v1p226p34-XC8\EL04\main\lobmain.c"
 Parameters:    Size  Location     Type
  locp            2    0[BANK0 ] PTR const struct el04_lo
		 -> Lefty_locs(60), Slicer_locs(60), Moonballer_locs(60), Advanced_locs(60), 
		 -> Intermediate_locs(60), Beginner_locs(60), foreonly_locs(60), attdef_locs(60), 
		 -> transition_locs(60), allcourt_locs(60), power_locs(60), grinder_locs(60), 
		 -> court_locs(9000), 
  pp              2    2[BANK0 ] PTR struct parm
		 -> manual(9), preset(144), 
  flags           1    4[BANK0 ] unsigned char 
 Auto vars:     Size  Location     Type
  i               1   18[BANK0 ] unsigned char 
  lox             1   17[BANK0 ] unsigned char 
  hix             1   16[BANK0 ] unsigned char 
 Return value:  Size  Location     Type
                  1    wreg      unsigned char 
 Registers used:
		wreg, fsr2l, fsr2h, status,2, status,0, tblptrl, tblptrh, tblptru, prodl, prodh
 Tracked objects:
		On entry : 
		On exit  : 
		Unchanged: 
 Data sizes:     COMRAM   BANK0   BANK1   BANK2   BANK3   BANK4   BANK5   BANK6   BANK7   BANK8   BANK9  BANK10  BANK11  BANK12  BANK13  BANK14  BANK15
      Params:         0       5       0       0       0       0       0       0       0       0       0       0       0       0       0       0       0
      Locals:         0       5       0       0       0       0       0       0       0       0       0       0       0       0       0       0       0
      Temps:          0       9       0       0       0       0       0       0       0       0       0       0       0       0       0       0       0
      Totals:         0      19       0       0       0       0       0       0       0       0       0       0       0       0       0       0       0
Total ram usage:       19 bytes
 Hardware stack levels used:    1
 Hardware stack levels required when called:    3
 This function calls:
		Nothing
 This function is called by:
		_lob_play
 This function uses a non-reentrant model


 *************** function _rand *****************
 Defined at:
		line 13 in file "C:\Program Files (x86)\Microchip\xc8\v1.33\sources\common\rand.c"
 Parameters:    Size  Location     Type
		None
 Auto vars:     Size  Location     Type
		None
 Return value:  Size  Location     Type
                  2   12[BANK0 ] int 
 Registers used:
		wreg, status,2, status,0, cstack
 Tracked objects:
		On entry : 
		On exit  : 
		Unchanged: 
 Data sizes:     COMRAM   BANK0   BANK1   BANK2   BANK3   BANK4   BANK5   BANK6   BANK7   BANK8   BANK9  BANK10  BANK11  BANK12  BANK13  BANK14  BANK15
      Params:         0       2       0       0       0       0       0       0       0       0       0       0       0       0       0       0       0
      Locals:         0       0       0       0       0       0       0       0       0       0       0       0       0       0       0       0       0
      Temps:          0       4       0       0       0       0       0       0       0       0       0       0       0       0       0       0       0
      Totals:         0       6       0       0       0       0       0       0       0       0       0       0       0       0       0       0       0
Total ram usage:        6 bytes
 Hardware stack levels used:    1
 Hardware stack levels required when called:    4
 This function calls:
		___lmul
		_srand
 This function is called by:
		_lob_play
 This function uses a non-reentrant model


 *************** function _srand *****************
 Defined at:
		line 7 in file "C:\Program Files (x86)\Microchip\xc8\v1.33\sources\common\rand.c"
 Parameters:    Size  Location     Type
  x               2    0[BANK0 ] unsigned int 
 Auto vars:     Size  Location     Type
		None
 Return value:  Size  Location     Type
		None               void
 Registers used:
		wreg, status,2
 Tracked objects:
		On entry : 
		On exit  : 
		Unchanged: 
 Data sizes:     COMRAM   BANK0   BANK1   BANK2   BANK3   BANK4   BANK5   BANK6   BANK7   BANK8   BANK9  BANK10  BANK11  BANK12  BANK13  BANK14  BANK15
      Params:         0       2       0       0       0       0       0       0       0       0       0       0       0       0       0       0       0
      Locals:         0       0       0       0       0       0       0       0       0       0       0       0       0       0       0       0       0
      Temps:          0       0       0       0       0       0       0       0       0       0       0       0       0       0       0       0       0
      Totals:         0       2       0       0       0       0       0       0       0       0       0       0       0       0       0       0       0
Total ram usage:        2 bytes
 Hardware stack levels used:    1
 Hardware stack levels required when called:    3
 This function calls:
		Nothing
 This function is called by:
		_lob_play
		_rand
 This function uses a non-reentrant model


 *************** function ___lmul *****************
 Defined at:
		line 15 in file "C:\Program Files (x86)\Microchip\xc8\v1.33\sources\common\Umul32.c"
 Parameters:    Size  Location     Type
  multiplier      4    0[BANK0 ] unsigned long 
  multiplicand    4    4[BANK0 ] unsigned long 
 Auto vars:     Size  Location     Type
  product         4    8[BANK0 ] unsigned long 
 Return value:  Size  Location     Type
                  4    0[BANK0 ] unsigned long 
 Registers used:
		wreg, status,2, status,0
 Tracked objects:
		On entry : 
		On exit  : 
		Unchanged: 
 Data sizes:     COMRAM   BANK0   BANK1   BANK2   BANK3   BANK4   BANK5   BANK6   BANK7   BANK8   BANK9  BANK10  BANK11  BANK12  BANK13  BANK14  BANK15
      Params:         0       8       0       0       0       0       0       0       0       0       0       0       0       0       0       0       0
      Locals:         0       4       0       0       0       0       0       0       0       0       0       0       0       0       0       0       0
      Temps:          0       0       0       0       0       0       0       0       0       0       0       0       0       0       0       0       0
      Totals:         0      12       0       0       0       0       0       0       0       0       0       0       0       0       0       0       0
Total ram usage:       12 bytes
 Hardware stack levels used:    1
 Hardware stack levels required when called:    3
 This function calls:
		Nothing
 This function is called by:
		_lobmain
		_rand
 This function uses a non-reentrant model


 *************** function _limit_method *****************
 Defined at:
		line 709 in file "D:\Users\MichaelZarling\Documents\Lobster\cs020_sw\Master_v1p226p34-XC8\EL04\main\lobmain.c"
 Parameters:    Size  Location     Type
  locp            2   18[BANK0 ] PTR const struct el04_lo
		 -> court_locs(9000), 
  ix              2   20[BANK0 ] unsigned short 
 Auto vars:     Size  Location     Type
  i               1   23[BANK0 ] unsigned char 
  j               1   22[BANK0 ] unsigned char 
 Return value:  Size  Location     Type
                  1    wreg      unsigned char 
 Registers used:
		wreg, status,2, status,0, tblptrl, tblptrh, tblptru, cstack
 Tracked objects:
		On entry : 
		On exit  : 
		Unchanged: 
 Data sizes:     COMRAM   BANK0   BANK1   BANK2   BANK3   BANK4   BANK5   BANK6   BANK7   BANK8   BANK9  BANK10  BANK11  BANK12  BANK13  BANK14  BANK15
      Params:         0       4       0       0       0       0       0       0       0       0       0       0       0       0       0       0       0
      Locals:         0       2       0       0       0       0       0       0       0       0       0       0       0       0       0       0       0
      Temps:          0       0       0       0       0       0       0       0       0       0       0       0       0       0       0       0       0
      Totals:         0       6       0       0       0       0       0       0       0       0       0       0       0       0       0       0       0
Total ram usage:        6 bytes
 Hardware stack levels used:    1
 Hardware stack levels required when called:    5
 This function calls:
		___lwmod
		_check_limits
 This function is called by:
		_lob_play
 This function uses a non-reentrant model


 *************** function _check_limits *****************
 Defined at:
		line 649 in file "D:\Users\MichaelZarling\Documents\Lobster\cs020_sw\Master_v1p226p34-XC8\EL04\main\lobmain.c"
 Parameters:    Size  Location     Type
  locp            2    5[BANK0 ] PTR const struct el04_lo
		 -> court_locs(9000), 
  ix              1    7[BANK0 ] unsigned char 
 Auto vars:     Size  Location     Type
  j               1   17[BANK0 ] unsigned char 
  i               1   16[BANK0 ] unsigned char 
  locpSpin        1   15[BANK0 ] char 
  locpSpeed       1   14[BANK0 ] unsigned char 
  dynSpin         1    0        unsigned char 
  dynSpeed        1    0        unsigned char 
  absSpin         1    0        unsigned char 
  absSpeed        1    0        unsigned char 
 Return value:  Size  Location     Type
                  1    wreg      unsigned char 
 Registers used:
		wreg, status,2, status,0, tblptrl, tblptrh, tblptru, cstack
 Tracked objects:
		On entry : 
		On exit  : 
		Unchanged: 
 Data sizes:     COMRAM   BANK0   BANK1   BANK2   BANK3   BANK4   BANK5   BANK6   BANK7   BANK8   BANK9  BANK10  BANK11  BANK12  BANK13  BANK14  BANK15
      Params:         0       3       0       0       0       0       0       0       0       0       0       0       0       0       0       0       0
      Locals:         0       6       0       0       0       0       0       0       0       0       0       0       0       0       0       0       0
      Temps:          0       4       0       0       0       0       0       0       0       0       0       0       0       0       0       0       0
      Totals:         0      13       0       0       0       0       0       0       0       0       0       0       0       0       0       0       0
Total ram usage:       13 bytes
 Hardware stack levels used:    1
 Hardware stack levels required when called:    4
 This function calls:
		_dumphex
		_putrsDIAG
 This function is called by:
		_limit_method
 This function uses a non-reentrant model


 *************** function _build_curshot *****************
 Defined at:
		line 497 in file "D:\Users\MichaelZarling\Documents\Lobster\cs020_sw\Master_v1p226p34-XC8\EL04\main\lobmain.c"
 Parameters:    Size  Location     Type
  pp              2   10[BANK0 ] PTR struct parm
		 -> manual(9), preset(144), 
 Auto vars:     Size  Location     Type
  stmp            2   23[BANK0 ] short 
  botval          2   20[BANK0 ] unsigned short 
  topval          2   18[BANK0 ] unsigned short 
  tmp             2   16[BANK0 ] unsigned short 
  ixa             1   22[BANK0 ] unsigned char 
 Return value:  Size  Location     Type
		None               void
 Registers used:
		wreg, fsr2l, fsr2h, status,2, status,0, tblptrl, tblptrh, tblptru, prodl, prodh, cstack
 Tracked objects:
		On entry : 
		On exit  : 
		Unchanged: 
 Data sizes:     COMRAM   BANK0   BANK1   BANK2   BANK3   BANK4   BANK5   BANK6   BANK7   BANK8   BANK9  BANK10  BANK11  BANK12  BANK13  BANK14  BANK15
      Params:         0       2       0       0       0       0       0       0       0       0       0       0       0       0       0       0       0
      Locals:         0      11       0       0       0       0       0       0       0       0       0       0       0       0       0       0       0
      Temps:          0       2       0       0       0       0       0       0       0       0       0       0       0       0       0       0       0
      Totals:         0      15       0       0       0       0       0       0       0       0       0       0       0       0       0       0       0
Total ram usage:       15 bytes
 Hardware stack levels used:    1
 Hardware stack levels required when called:    4
 This function calls:
		___lbdiv
		___wmul
 This function is called by:
		_lob_play
 This function uses a non-reentrant model


 *************** function _set_serve *****************
 Defined at:
		line 457 in file "D:\Users\MichaelZarling\Documents\Lobster\cs020_sw\Master_v1p226p34-XC8\EL04\main\lobmain.c"
 Parameters:    Size  Location     Type
  pp              2   26[BANK0 ] PTR struct parm
		 -> manual(9), preset(144), 
 Auto vars:     Size  Location     Type
  botval          2   39[BANK0 ] unsigned short 
  topval          2   37[BANK0 ] unsigned short 
  stmp            2   34[BANK0 ] short 
  tmp             2   30[BANK0 ] unsigned short 
  ixa             1   36[BANK0 ] unsigned char 
 Return value:  Size  Location     Type
		None               void
 Registers used:
		wreg, fsr2l, fsr2h, status,2, status,0, tblptrl, tblptrh, tblptru, prodl, prodh, cstack
 Tracked objects:
		On entry : 
		On exit  : 
		Unchanged: 
 Data sizes:     COMRAM   BANK0   BANK1   BANK2   BANK3   BANK4   BANK5   BANK6   BANK7   BANK8   BANK9  BANK10  BANK11  BANK12  BANK13  BANK14  BANK15
      Params:         0       2       0       0       0       0       0       0       0       0       0       0       0       0       0       0       0
      Locals:         0      11       0       0       0       0       0       0       0       0       0       0       0       0       0       0       0
      Temps:          0       2       0       0       0       0       0       0       0       0       0       0       0       0       0       0       0
      Totals:         0      15       0       0       0       0       0       0       0       0       0       0       0       0       0       0       0
Total ram usage:       15 bytes
 Hardware stack levels used:    1
 Hardware stack levels required when called:    8
 This function calls:
		___lbdiv
		_stop_all
 This function is called by:
		_main
		_lob_manual
		_lob_play
		_lob_preset
 This function uses a non-reentrant model


 *************** function ___lbdiv *****************
 Defined at:
		line 4 in file "C:\Program Files (x86)\Microchip\xc8\v1.33\sources\common\lbdiv.c"
 Parameters:    Size  Location     Type
  dividend        1    wreg     unsigned char 
  divisor         1    6[BANK0 ] unsigned char 
 Auto vars:     Size  Location     Type
  dividend        1    7[BANK0 ] unsigned char 
  quotient        1    9[BANK0 ] unsigned char 
  counter         1    8[BANK0 ] unsigned char 
 Return value:  Size  Location     Type
                  1    wreg      unsigned char 
 Registers used:
		wreg, status,2, status,0
 Tracked objects:
		On entry : 
		On exit  : 
		Unchanged: 
 Data sizes:     COMRAM   BANK0   BANK1   BANK2   BANK3   BANK4   BANK5   BANK6   BANK7   BANK8   BANK9  BANK10  BANK11  BANK12  BANK13  BANK14  BANK15
      Params:         0       1       0       0       0       0       0       0       0       0       0       0       0       0       0       0       0
      Locals:         0       3       0       0       0       0       0       0       0       0       0       0       0       0       0       0       0
      Temps:          0       0       0       0       0       0       0       0       0       0       0       0       0       0       0       0       0
      Totals:         0       4       0       0       0       0       0       0       0       0       0       0       0       0       0       0       0
Total ram usage:        4 bytes
 Hardware stack levels used:    1
 Hardware stack levels required when called:    3
 This function calls:
		Nothing
 This function is called by:
		_main
		_set_serve
		_build_curshot
		_show_prog3
 This function uses a non-reentrant model


 *************** function _lob_parm *****************
 Defined at:
		line 330 in file "D:\Users\MichaelZarling\Documents\Lobster\cs020_sw\Master_v1p226p34-XC8\EL04\main\lobparm.c"
 Parameters:    Size  Location     Type
  cmd             1    wreg     unsigned char 
  pix             2   35[BANK0 ] PTR unsigned char 
		 -> preset_ix(16), man_parm(1), 
  pparm           2   37[BANK0 ] PTR char 
		 -> manual(9), preset(144), 
  mask            3   39[BANK0 ] unsigned um
 Auto vars:     Size  Location     Type
  cmd             1   78[BANK0 ] unsigned char 
  tmsk            3   79[BANK0 ] unsigned um
  cmsk            3   73[BANK0 ] unsigned um
  i               2   87[BANK0 ] unsigned short 
  premode         2   84[BANK0 ] unsigned short 
  k               2   82[BANK0 ] unsigned short 
  ln              2   76[BANK0 ] unsigned short 
  j               2    0        unsigned short 
  newval          1   86[BANK0 ] char 
  botMenu         1   53[BANK0 ] unsigned char 
 Return value:  Size  Location     Type
                  1    wreg      unsigned char 
 Registers used:
		wreg, fsr0l, fsr0h, fsr1l, fsr1h, fsr2l, fsr2h, status,2, status,0, tblptrl, tblptrh, tblptru, prodl, prodh, cstack
 Tracked objects:
		On entry : 
		On exit  : 
		Unchanged: 
 Data sizes:     COMRAM   BANK0   BANK1   BANK2   BANK3   BANK4   BANK5   BANK6   BANK7   BANK8   BANK9  BANK10  BANK11  BANK12  BANK13  BANK14  BANK15
      Params:         0       7       0       0       0       0       0       0       0       0       0       0       0       0       0       0       0
      Locals:         0      36       0       0       0       0       0       0       0       0       0       0       0       0       0       0       0
      Temps:          0      11       0       0       0       0       0       0       0       0       0       0       0       0       0       0       0
      Totals:         0      54       0       0       0       0       0       0       0       0       0       0       0       0       0       0       0
Total ram usage:       54 bytes
 Hardware stack levels used:    1
 Hardware stack levels required when called:    8
 This function calls:
		___awdiv
		___wmul
		_abort_shot
		_chartoa
		_clear_lcd
		_dumphex
		_is_available
		_strcpy
		_strncpy
 This function is called by:
		_main
		_lob_manual
		_lob_play
		_lob_preset
 This function uses a non-reentrant model


 *************** function _is_available *****************
 Defined at:
		line 776 in file "D:\Users\MichaelZarling\Documents\Lobster\cs020_sw\Master_v1p226p34-XC8\EL04\main\lobparm.c"
 Parameters:    Size  Location     Type
  locno           1    wreg     unsigned char 
  spd             1   14[BANK0 ] unsigned char 
  spn             1   15[BANK0 ] char 
 Auto vars:     Size  Location     Type
  locno           1   16[BANK0 ] unsigned char 
  rc              1   17[BANK0 ] unsigned char 
 Return value:  Size  Location     Type
                  1    wreg      unsigned char 
 Registers used:
		wreg, status,2, status,0, tblptrl, tblptrh, tblptru, prodl, prodh, cstack
 Tracked objects:
		On entry : 
		On exit  : 
		Unchanged: 
 Data sizes:     COMRAM   BANK0   BANK1   BANK2   BANK3   BANK4   BANK5   BANK6   BANK7   BANK8   BANK9  BANK10  BANK11  BANK12  BANK13  BANK14  BANK15
      Params:         0       2       0       0       0       0       0       0       0       0       0       0       0       0       0       0       0
      Locals:         0       2       0       0       0       0       0       0       0       0       0       0       0       0       0       0       0
      Temps:          0       0       0       0       0       0       0       0       0       0       0       0       0       0       0       0       0
      Totals:         0       4       0       0       0       0       0       0       0       0       0       0       0       0       0       0       0
Total ram usage:        4 bytes
 Hardware stack levels used:    1
 Hardware stack levels required when called:    5
 This function calls:
		_isLocAvail
 This function is called by:
		_lob_parm
 This function uses a non-reentrant model


 *************** function _isLocAvail *****************
 Defined at:
		line 798 in file "D:\Users\MichaelZarling\Documents\Lobster\cs020_sw\Master_v1p226p34-XC8\EL04\main\lobparm.c"
 Parameters:    Size  Location     Type
  locNo           1    wreg     unsigned char 
  spd             1    6[BANK0 ] unsigned char 
  spn             1    7[BANK0 ] char 
 Auto vars:     Size  Location     Type
  locNo           1   10[BANK0 ] unsigned char 
  locp            2   11[BANK0 ] PTR const struct el04_lo
		 -> court_locs(9000), 
  method          1   13[BANK0 ] char 
 Return value:  Size  Location     Type
                  1    wreg      unsigned char 
 Registers used:
		wreg, status,2, status,0, tblptrl, tblptrh, tblptru, prodl, prodh, cstack
 Tracked objects:
		On entry : 
		On exit  : 
		Unchanged: 
 Data sizes:     COMRAM   BANK0   BANK1   BANK2   BANK3   BANK4   BANK5   BANK6   BANK7   BANK8   BANK9  BANK10  BANK11  BANK12  BANK13  BANK14  BANK15
      Params:         0       2       0       0       0       0       0       0       0       0       0       0       0       0       0       0       0
      Locals:         0       4       0       0       0       0       0       0       0       0       0       0       0       0       0       0       0
      Temps:          0       2       0       0       0       0       0       0       0       0       0       0       0       0       0       0       0
      Totals:         0       8       0       0       0       0       0       0       0       0       0       0       0       0       0       0       0
Total ram usage:        8 bytes
 Hardware stack levels used:    1
 Hardware stack levels required when called:    4
 This function calls:
		___wmul
 This function is called by:
		_is_available
 This function uses a non-reentrant model


 *************** function _chartoa *****************
 Defined at:
		line 265 in file "D:\Users\MichaelZarling\Documents\Lobster\cs020_sw\Master_v1p226p34-XC8\EL04\main\lobparm.c"
 Parameters:    Size  Location     Type
  c               1    wreg     const char 
  cp              2   26[BANK0 ] PTR unsigned char 
		 -> lcd_line(68), 
  ndig            1   28[BANK0 ] char 
 Auto vars:     Size  Location     Type
  c               1   33[BANK0 ] const char 
  x               1   34[BANK0 ] char 
 Return value:  Size  Location     Type
		None               void
 Registers used:
		wreg, fsr0l, fsr0h, fsr2l, fsr2h, status,2, status,0, tblptrl, tblptrh, tblptru, prodl, prodh, cstack
 Tracked objects:
		On entry : 
		On exit  : 
		Unchanged: 
 Data sizes:     COMRAM   BANK0   BANK1   BANK2   BANK3   BANK4   BANK5   BANK6   BANK7   BANK8   BANK9  BANK10  BANK11  BANK12  BANK13  BANK14  BANK15
      Params:         0       3       0       0       0       0       0       0       0       0       0       0       0       0       0       0       0
      Locals:         0       2       0       0       0       0       0       0       0       0       0       0       0       0       0       0       0
      Temps:          0       4       0       0       0       0       0       0       0       0       0       0       0       0       0       0       0
      Totals:         0       9       0       0       0       0       0       0       0       0       0       0       0       0       0       0       0
Total ram usage:        9 bytes
 Hardware stack levels used:    1
 Hardware stack levels required when called:    4
 This function calls:
		___awdiv
		___awmod
		_strlen
		_strncpy
 This function is called by:
		_show_prog1
		_show_prog2
		_show_prog3
		_show_progRPM
		_lob_parm
 This function uses a non-reentrant model


 *************** function _strncpy *****************
 Defined at:
		line 8 in file "C:\Program Files (x86)\Microchip\xc8\v1.33\sources\common\strncpy.c"
 Parameters:    Size  Location     Type
  to              2    6[BANK0 ] PTR unsigned char 
		 -> lcd_line(68), 
  from            2    8[BANK0 ] PTR const unsigned char 
		 -> STR_440(8), STR_439(3), STR_437(7), STR_436(7), 
		 -> STR_435(7), STR_434(7), STR_433(14), STR_432(14), 
		 -> STR_431(14), STR_430(14), STR_429(14), STR_428(14), 
		 -> STR_427(14), STR_426(7), STR_425(7), STR_424(7), 
		 -> STR_423(4), STR_422(6), STR_421(7), STR_420(5), 
		 -> STR_419(7), STR_418(1), STR_417(1), STR_416(7), 
		 -> STR_415(1), STR_414(7), STR_413(7), STR_412(7), 
		 -> STR_411(7), STR_410(7), STR_409(14), STR_408(14), 
		 -> STR_407(14), STR_406(14), STR_405(14), STR_404(14), 
		 -> STR_403(14), STR_402(7), STR_401(7), STR_400(7), 
		 -> STR_399(6), STR_398(6), STR_397(7), STR_396(6), 
		 -> STR_395(7), STR_394(7), STR_393(7), STR_392(7), 
		 -> STR_391(7), STR_390(7), STR_389(17), STR_388(17), 
		 -> STR_387(17), STR_386(17), STR_385(17), STR_384(17), 
		 -> STR_383(17), STR_382(17), STR_381(17), STR_380(17), 
		 -> STR_379(17), STR_378(17), STR_377(17), STR_376(17), 
		 -> STR_375(17), STR_374(17), STR_373(17), STR_372(17), 
		 -> STR_371(17), STR_370(17), STR_369(17), STR_368(17), 
		 -> STR_367(17), STR_366(17), STR_365(17), STR_364(17), 
		 -> STR_363(17), STR_362(17), STR_361(17), STR_360(17), 
		 -> STR_359(17), STR_358(17), STR_357(17), STR_356(17), 
		 -> STR_355(17), STR_354(17), STR_353(9), STR_352(9), 
		 -> STR_351(9), STR_350(9), STR_349(9), STR_348(9), 
		 -> STR_347(17), STR_346(17), STR_345(17), STR_344(17), 
		 -> STR_326(3), STR_325(3), 
  size            2   10[BANK0 ] unsigned int 
 Auto vars:     Size  Location     Type
  cp              2   12[BANK0 ] PTR unsigned char 
		 -> lcd_line(68), 
 Return value:  Size  Location     Type
                  2    6[BANK0 ] PTR unsigned char 
 Registers used:
		wreg, fsr2l, fsr2h, status,2, status,0, tblptrl, tblptrh, tblptru
 Tracked objects:
		On entry : 
		On exit  : 
		Unchanged: 
 Data sizes:     COMRAM   BANK0   BANK1   BANK2   BANK3   BANK4   BANK5   BANK6   BANK7   BANK8   BANK9  BANK10  BANK11  BANK12  BANK13  BANK14  BANK15
      Params:         0       6       0       0       0       0       0       0       0       0       0       0       0       0       0       0       0
      Locals:         0       2       0       0       0       0       0       0       0       0       0       0       0       0       0       0       0
      Temps:          0       0       0       0       0       0       0       0       0       0       0       0       0       0       0       0       0
      Totals:         0       8       0       0       0       0       0       0       0       0       0       0       0       0       0       0       0
Total ram usage:        8 bytes
 Hardware stack levels used:    1
 Hardware stack levels required when called:    3
 This function calls:
		Nothing
 This function is called by:
		_show_prog3
		_chartoa
		_lob_parm
 This function uses a non-reentrant model


 *************** function ___awmod *****************
 Defined at:
		line 8 in file "C:\Program Files (x86)\Microchip\xc8\v1.33\sources\common\awmod.c"
 Parameters:    Size  Location     Type
  dividend        2   18[BANK0 ] int 
  divisor         2   20[BANK0 ] int 
 Auto vars:     Size  Location     Type
  sign            1   23[BANK0 ] unsigned char 
  counter         1   22[BANK0 ] unsigned char 
 Return value:  Size  Location     Type
                  2   18[BANK0 ] int 
 Registers used:
		wreg, status,2, status,0, prodl
 Tracked objects:
		On entry : 
		On exit  : 
		Unchanged: 
 Data sizes:     COMRAM   BANK0   BANK1   BANK2   BANK3   BANK4   BANK5   BANK6   BANK7   BANK8   BANK9  BANK10  BANK11  BANK12  BANK13  BANK14  BANK15
      Params:         0       4       0       0       0       0       0       0       0       0       0       0       0       0       0       0       0
      Locals:         0       2       0       0       0       0       0       0       0       0       0       0       0       0       0       0       0
      Temps:          0       0       0       0       0       0       0       0       0       0       0       0       0       0       0       0       0
      Totals:         0       6       0       0       0       0       0       0       0       0       0       0       0       0       0       0       0
Total ram usage:        6 bytes
 Hardware stack levels used:    1
 Hardware stack levels required when called:    3
 This function calls:
		Nothing
 This function is called by:
		_lob_play
		_chartoa
 This function uses a non-reentrant model


 *************** function ___awdiv *****************
 Defined at:
		line 8 in file "C:\Program Files (x86)\Microchip\xc8\v1.33\sources\common\awdiv.c"
 Parameters:    Size  Location     Type
  dividend        2   18[BANK0 ] int 
  divisor         2   20[BANK0 ] int 
 Auto vars:     Size  Location     Type
  quotient        2   24[BANK0 ] int 
  sign            1   23[BANK0 ] unsigned char 
  counter         1   22[BANK0 ] unsigned char 
 Return value:  Size  Location     Type
                  2   18[BANK0 ] int 
 Registers used:
		wreg, status,2, status,0, prodl
 Tracked objects:
		On entry : 
		On exit  : 
		Unchanged: 
 Data sizes:     COMRAM   BANK0   BANK1   BANK2   BANK3   BANK4   BANK5   BANK6   BANK7   BANK8   BANK9  BANK10  BANK11  BANK12  BANK13  BANK14  BANK15
      Params:         0       4       0       0       0       0       0       0       0       0       0       0       0       0       0       0       0
      Locals:         0       4       0       0       0       0       0       0       0       0       0       0       0       0       0       0       0
      Temps:          0       0       0       0       0       0       0       0       0       0       0       0       0       0       0       0       0
      Totals:         0       8       0       0       0       0       0       0       0       0       0       0       0       0       0       0       0
Total ram usage:        8 bytes
 Hardware stack levels used:    1
 Hardware stack levels required when called:    3
 This function calls:
		Nothing
 This function is called by:
		_main
		_lob_play
		_chartoa
		_lob_parm
 This function uses a non-reentrant model


 *************** function _lob_error *****************
 Defined at:
		line 93 in file "D:\Users\MichaelZarling\Documents\Lobster\cs020_sw\Master_v1p226p34-XC8\EL04\main\loberr.c"
 Parameters:    Size  Location     Type
		None
 Auto vars:     Size  Location     Type
  code            1   28[BANK0 ] char 
 Return value:  Size  Location     Type
		None               void
 Registers used:
		wreg, fsr0l, fsr0h, fsr2l, fsr2h, status,2, status,0, tblptrl, tblptrh, tblptru, prodl, prodh, cstack
 Tracked objects:
		On entry : 
		On exit  : 
		Unchanged: 
 Data sizes:     COMRAM   BANK0   BANK1   BANK2   BANK3   BANK4   BANK5   BANK6   BANK7   BANK8   BANK9  BANK10  BANK11  BANK12  BANK13  BANK14  BANK15
      Params:         0       0       0       0       0       0       0       0       0       0       0       0       0       0       0       0       0
      Locals:         0       1       0       0       0       0       0       0       0       0       0       0       0       0       0       0       0
      Temps:          0       2       0       0       0       0       0       0       0       0       0       0       0       0       0       0       0
      Totals:         0       3       0       0       0       0       0       0       0       0       0       0       0       0       0       0       0
Total ram usage:        3 bytes
 Hardware stack levels used:    1
 Hardware stack levels required when called:    8
 This function calls:
		___wmul
		_clear_lcd
		_stop_all
		_strcpy
 This function is called by:
		_lobmain
 This function uses a non-reentrant model


 *************** function _clear_lcd *****************
 Defined at:
		line 59 in file "D:\Users\MichaelZarling\Documents\Lobster\cs020_sw\Master_v1p226p34-XC8\EL04\main\loblcd.c"
 Parameters:    Size  Location     Type
  mask            1    wreg     unsigned char 
 Auto vars:     Size  Location     Type
  mask            1   13[BANK0 ] unsigned char 
  i               1   15[BANK0 ] unsigned char 
  line            1   14[BANK0 ] unsigned char 
 Return value:  Size  Location     Type
		None               void
 Registers used:
		wreg, fsr0l, fsr0h, fsr2l, fsr2h, status,2, status,0, tblptrl, tblptrh, tblptru, prodl, prodh, cstack
 Tracked objects:
		On entry : 
		On exit  : 
		Unchanged: 
 Data sizes:     COMRAM   BANK0   BANK1   BANK2   BANK3   BANK4   BANK5   BANK6   BANK7   BANK8   BANK9  BANK10  BANK11  BANK12  BANK13  BANK14  BANK15
      Params:         0       0       0       0       0       0       0       0       0       0       0       0       0       0       0       0       0
      Locals:         0       3       0       0       0       0       0       0       0       0       0       0       0       0       0       0       0
      Temps:          0       0       0       0       0       0       0       0       0       0       0       0       0       0       0       0       0
      Totals:         0       3       0       0       0       0       0       0       0       0       0       0       0       0       0       0       0
Total ram usage:        3 bytes
 Hardware stack levels used:    1
 Hardware stack levels required when called:    4
 This function calls:
		_strcpy
 This function is called by:
		_lob_manual
		_lob_test
		_lob_parm
		_lob_error
 This function uses a non-reentrant model


 *************** function _strcpy *****************
 Defined at:
		line 8 in file "C:\Program Files (x86)\Microchip\xc8\v1.33\sources\common\strcpy.c"
 Parameters:    Size  Location     Type
  to              2    6[BANK0 ] PTR unsigned char 
		 -> lobmain@cursor_chk(17), RemoteStringVar(10), RemoteString(68), lcd_line(68), 
  from            3    8[BANK0 ] PTR const unsigned char 
		 -> STR_454(17), STR_453(17), STR_452(17), STR_451(17), 
		 -> STR_450(17), STR_449(17), STR_448(17), STR_447(17), 
		 -> STR_446(17), STR_445(17), STR_444(17), STR_443(17), 
		 -> STR_438(9), STR_330(17), STR_329(17), STR_328(17), 
		 -> STR_327(17), STR_324(17), STR_321(17), STR_320(17), 
		 -> STR_319(17), STR_318(17), STR_315(17), STR_314(17), 
		 -> STR_312(17), STR_311(17), STR_310(9), STR_309(9), 
		 -> STR_308(17), STR_307(17), STR_306(9), STR_305(9), 
		 -> STR_304(17), STR_303(17), STR_302(1), STR_301(1), 
		 -> STR_300(1), STR_299(1), STR_298(9), STR_297(9), 
		 -> STR_296(9), STR_295(9), STR_294(17), STR_293(17), 
		 -> STR_274(17), STR_273(17), STR_272(17), STR_271(17), 
		 -> STR_270(17), STR_269(17), STR_268(17), STR_267(17), 
		 -> STR_266(17), STR_265(17), STR_264(17), STR_263(17), 
		 -> STR_262(17), STR_261(17), STR_260(17), STR_172(17), 
		 -> STR_171(17), STR_170(17), STR_169(17), STR_168(17), 
		 -> STR_167(17), STR_166(17), STR_165(17), STR_164(17), 
		 -> STR_163(17), STR_162(17), ROM(131071), STR_161(17), 
		 -> STR_138(2), STR_137(14), STR_133(41), STR_126(7), 
		 -> STR_125(2), STR_124(2), STR_123(7), STR_122(2), 
		 -> STR_121(6), STR_120(2), STR_119(2), STR_118(7), 
		 -> STR_117(2), STR_116(6), STR_115(7), STR_114(2), 
		 -> STR_113(2), STR_112(7), STR_111(2), STR_110(6), 
		 -> STR_109(2), STR_108(2), STR_107(7), STR_106(2), 
		 -> STR_105(6), STR_104(7), STR_103(7), STR_102(7), 
		 -> STR_101(7), STR_100(7), STR_99(7), STR_98(7), 
		 -> STR_97(7), STR_95(7), STR_93(7), STR_91(7), 
		 -> STR_89(7), STR_88(8), STR_87(8), STR_86(8), 
		 -> STR_85(8), STR_84(14), STR_83(14), STR_82(12), 
		 -> STR_81(13), STR_80(17), STR_79(15), STR_78(19), 
		 -> STR_77(15), STR_76(20), STR_75(20), STR_74(15), 
		 -> STR_73(17), STR_72(18), STR_71(22), STR_70(12), 
		 -> STR_69(7), STR_68(7), STR_67(5), STR_66(8), 
		 -> STR_65(12), STR_64(12), STR_63(11), STR_62(7), 
		 -> STR_61(11), STR_60(11), STR_59(2), STR_58(2), 
		 -> STR_57(7), STR_56(2), STR_55(6), STR_54(11), 
		 -> STR_52(8), STR_51(12), STR_50(5), STR_49(6), 
		 -> STR_48(19), STR_47(18), STR_46(17), STR_45(14), 
		 -> STR_44(14), STR_43(23), STR_42(13), STR_41(13), 
		 -> STR_40(5), STR_39(7), STR_38(5), STR_37(5), 
		 -> lcd_line(68), STR_30(17), STR_29(17), STR_28(17), 
		 -> STR_27(17), STR_26(17), STR_25(17), STR_24(17), 
		 -> STR_23(17), STR_22(17), STR_21(17), STR_20(17), 
		 -> STR_19(17), STR_18(17), STR_17(17), STR_16(17), 
		 -> STR_15(17), STR_14(17), STR_13(17), 
 Auto vars:     Size  Location     Type
  cp              2   11[BANK0 ] PTR unsigned char 
		 -> lobmain@cursor_chk(17), RemoteStringVar(10), RemoteString(68), lcd_line(68), 
 Return value:  Size  Location     Type
                  2    6[BANK0 ] PTR unsigned char 
 Registers used:
		wreg, fsr0l, fsr0h, fsr2l, fsr2h, status,2, status,0, tblptrl, tblptrh, tblptru
 Tracked objects:
		On entry : 
		On exit  : 
		Unchanged: 
 Data sizes:     COMRAM   BANK0   BANK1   BANK2   BANK3   BANK4   BANK5   BANK6   BANK7   BANK8   BANK9  BANK10  BANK11  BANK12  BANK13  BANK14  BANK15
      Params:         0       5       0       0       0       0       0       0       0       0       0       0       0       0       0       0       0
      Locals:         0       2       0       0       0       0       0       0       0       0       0       0       0       0       0       0       0
      Temps:          0       0       0       0       0       0       0       0       0       0       0       0       0       0       0       0       0
      Totals:         0       7       0       0       0       0       0       0       0       0       0       0       0       0       0       0       0
Total ram usage:        7 bytes
 Hardware stack levels used:    1
 Hardware stack levels required when called:    3
 This function calls:
		Nothing
 This function is called by:
		_main
		_clear_lcd
		_lob_idle
		_lob_test
		_lobmain
		_show_prog1
		_show_prog2
		_show_prog3
		_show_progRPM
		_lob_parm
		_lob_error
 This function uses a non-reentrant model


 *************** function _sm_service_EL05LE2 *****************
 Defined at:
		line 66 in file "D:\Users\MichaelZarling\Documents\Lobster\cs020_sw\Master_v1p226p34-XC8\EL04\main\state_mach.c"
 Parameters:    Size  Location     Type
  key             2    6[BANK0 ] unsigned short 
 Auto vars:     Size  Location     Type
  state           1   13[BANK0 ] unsigned char 
 Return value:  Size  Location     Type
		None               void
 Registers used:
		wreg, fsr2l, fsr2h, status,2, status,0, tblptrl, tblptrh, tblptru, prodl, prodh, cstack
 Tracked objects:
		On entry : 
		On exit  : 
		Unchanged: 
 Data sizes:     COMRAM   BANK0   BANK1   BANK2   BANK3   BANK4   BANK5   BANK6   BANK7   BANK8   BANK9  BANK10  BANK11  BANK12  BANK13  BANK14  BANK15
      Params:         0       2       0       0       0       0       0       0       0       0       0       0       0       0       0       0       0
      Locals:         0       1       0       0       0       0       0       0       0       0       0       0       0       0       0       0       0
      Temps:          0       5       0       0       0       0       0       0       0       0       0       0       0       0       0       0       0
      Totals:         0       8       0       0       0       0       0       0       0       0       0       0       0       0       0       0       0
Total ram usage:        8 bytes
 Hardware stack levels used:    1
 Hardware stack levels required when called:    4
 This function calls:
		___wmul
 This function is called by:
		_lob_idle
		_lob_abort
		_lob_test
		_lobmain
 This function uses a non-reentrant model


 *************** function _sm_service_EL04 *****************
 Defined at:
		line 44 in file "D:\Users\MichaelZarling\Documents\Lobster\cs020_sw\Master_v1p226p34-XC8\EL04\main\state_mach.c"
 Parameters:    Size  Location     Type
  key             2    6[BANK0 ] unsigned short 
 Auto vars:     Size  Location     Type
  state           1   13[BANK0 ] unsigned char 
 Return value:  Size  Location     Type
		None               void
 Registers used:
		wreg, fsr2l, fsr2h, status,2, status,0, tblptrl, tblptrh, tblptru, prodl, prodh, cstack
 Tracked objects:
		On entry : 
		On exit  : 
		Unchanged: 
 Data sizes:     COMRAM   BANK0   BANK1   BANK2   BANK3   BANK4   BANK5   BANK6   BANK7   BANK8   BANK9  BANK10  BANK11  BANK12  BANK13  BANK14  BANK15
      Params:         0       2       0       0       0       0       0       0       0       0       0       0       0       0       0       0       0
      Locals:         0       1       0       0       0       0       0       0       0       0       0       0       0       0       0       0       0
      Temps:          0       5       0       0       0       0       0       0       0       0       0       0       0       0       0       0       0
      Totals:         0       8       0       0       0       0       0       0       0       0       0       0       0       0       0       0       0
Total ram usage:        8 bytes
 Hardware stack levels used:    1
 Hardware stack levels required when called:    4
 This function calls:
		___wmul
 This function is called by:
		_lob_idle
		_lob_abort
		_lob_test
		_lobmain
 This function uses a non-reentrant model


 *************** function _sm_service *****************
 Defined at:
		line 23 in file "D:\Users\MichaelZarling\Documents\Lobster\cs020_sw\Master_v1p226p34-XC8\EL04\main\state_mach.c"
 Parameters:    Size  Location     Type
  key             2    6[BANK0 ] unsigned short 
 Auto vars:     Size  Location     Type
  state           1   13[BANK0 ] unsigned char 
 Return value:  Size  Location     Type
		None               void
 Registers used:
		wreg, fsr2l, fsr2h, status,2, status,0, tblptrl, tblptrh, tblptru, prodl, prodh, cstack
 Tracked objects:
		On entry : 
		On exit  : 
		Unchanged: 
 Data sizes:     COMRAM   BANK0   BANK1   BANK2   BANK3   BANK4   BANK5   BANK6   BANK7   BANK8   BANK9  BANK10  BANK11  BANK12  BANK13  BANK14  BANK15
      Params:         0       2       0       0       0       0       0       0       0       0       0       0       0       0       0       0       0
      Locals:         0       1       0       0       0       0       0       0       0       0       0       0       0       0       0       0       0
      Temps:          0       5       0       0       0       0       0       0       0       0       0       0       0       0       0       0       0
      Totals:         0       8       0       0       0       0       0       0       0       0       0       0       0       0       0       0       0
Total ram usage:        8 bytes
 Hardware stack levels used:    1
 Hardware stack levels required when called:    4
 This function calls:
		___wmul
 This function is called by:
		_lob_idle
		_lob_abort
		_lob_test
		_lobmain
 This function uses a non-reentrant model


 *************** function _abort_shot *****************
 Defined at:
		line 7824 in file "D:\Users\MichaelZarling\Documents\Lobster\cs020_sw\Master_v1p226p34-XC8\EL04\main\master.c"
 Parameters:    Size  Location     Type
		None
 Auto vars:     Size  Location     Type
		None
 Return value:  Size  Location     Type
		None               void
 Registers used:
		wreg, fsr2l, fsr2h, status,2, status,0, prodl, prodh, cstack
 Tracked objects:
		On entry : 
		On exit  : 
		Unchanged: 
 Data sizes:     COMRAM   BANK0   BANK1   BANK2   BANK3   BANK4   BANK5   BANK6   BANK7   BANK8   BANK9  BANK10  BANK11  BANK12  BANK13  BANK14  BANK15
      Params:         0       0       0       0       0       0       0       0       0       0       0       0       0       0       0       0       0
      Locals:         0       0       0       0       0       0       0       0       0       0       0       0       0       0       0       0       0
      Temps:          0       0       0       0       0       0       0       0       0       0       0       0       0       0       0       0       0
      Totals:         0       0       0       0       0       0       0       0       0       0       0       0       0       0       0       0       0
Total ram usage:        0 bytes
 Hardware stack levels used:    1
 Hardware stack levels required when called:    7
 This function calls:
		_StopBidirMtrs
		_StopFeedMtr
		_putrsDIAG
 This function is called by:
		_lob_abort
		_lob_parm
 This function uses a non-reentrant model


 *************** function _itoa *****************
 Defined at:
		line 4 in file "C:\Program Files (x86)\Microchip\xc8\v1.33\sources\common\itoa.c"
 Parameters:    Size  Location     Type
  buf             2   16[BANK0 ] PTR unsigned char 
		 -> lobmain@BatValASCII(4), RemoteStringVar(10), 
  val             2   18[BANK0 ] int 
  base            2   20[BANK0 ] int 
 Auto vars:     Size  Location     Type
  cp              2    0        PTR unsigned char 
		 -> lobmain@BatValASCII(4), RemoteStringVar(10), 
 Return value:  Size  Location     Type
                  2   16[BANK0 ] PTR unsigned char 
 Registers used:
		wreg, fsr2l, fsr2h, status,2, status,0, prodl, cstack
 Tracked objects:
		On entry : 
		On exit  : 
		Unchanged: 
 Data sizes:     COMRAM   BANK0   BANK1   BANK2   BANK3   BANK4   BANK5   BANK6   BANK7   BANK8   BANK9  BANK10  BANK11  BANK12  BANK13  BANK14  BANK15
      Params:         0       6       0       0       0       0       0       0       0       0       0       0       0       0       0       0       0
      Locals:         0       2       0       0       0       0       0       0       0       0       0       0       0       0       0       0       0
      Temps:          0       0       0       0       0       0       0       0       0       0       0       0       0       0       0       0       0
      Totals:         0       8       0       0       0       0       0       0       0       0       0       0       0       0       0       0       0
Total ram usage:        8 bytes
 Hardware stack levels used:    1
 Hardware stack levels required when called:    5
 This function calls:
		_utoa
 This function is called by:
		_main
		_lobmain
 This function uses a non-reentrant model


 *************** function _utoa *****************
 Defined at:
		line 17 in file "C:\Program Files (x86)\Microchip\xc8\v1.33\sources\common\itoa.c"
 Parameters:    Size  Location     Type
  buf             2    7[BANK0 ] PTR unsigned char 
		 -> lobmain@BatValASCII(4), RemoteStringVar(10), 
  val             2    9[BANK0 ] unsigned int 
  base            2   11[BANK0 ] int 
 Auto vars:     Size  Location     Type
  v               2   13[BANK0 ] unsigned int 
  c               1   15[BANK0 ] unsigned char 
 Return value:  Size  Location     Type
                  2    7[BANK0 ] PTR unsigned char 
 Registers used:
		wreg, fsr2l, fsr2h, status,2, status,0, cstack
 Tracked objects:
		On entry : 
		On exit  : 
		Unchanged: 
 Data sizes:     COMRAM   BANK0   BANK1   BANK2   BANK3   BANK4   BANK5   BANK6   BANK7   BANK8   BANK9  BANK10  BANK11  BANK12  BANK13  BANK14  BANK15
      Params:         0       6       0       0       0       0       0       0       0       0       0       0       0       0       0       0       0
      Locals:         0       3       0       0       0       0       0       0       0       0       0       0       0       0       0       0       0
      Temps:          0       0       0       0       0       0       0       0       0       0       0       0       0       0       0       0       0
      Totals:         0       9       0       0       0       0       0       0       0       0       0       0       0       0       0       0       0
Total ram usage:        9 bytes
 Hardware stack levels used:    1
 Hardware stack levels required when called:    4
 This function calls:
		___lwdiv
		___lwmod
 This function is called by:
		_itoa
 This function uses a non-reentrant model


 *************** function ___lwmod *****************
 Defined at:
		line 8 in file "C:\Program Files (x86)\Microchip\xc8\v1.33\sources\common\lwmod.c"
 Parameters:    Size  Location     Type
  dividend        2    0[BANK0 ] unsigned int 
  divisor         2    2[BANK0 ] unsigned int 
 Auto vars:     Size  Location     Type
  counter         1    4[BANK0 ] unsigned char 
 Return value:  Size  Location     Type
                  2    0[BANK0 ] unsigned int 
 Registers used:
		wreg, status,2, status,0
 Tracked objects:
		On entry : 
		On exit  : 
		Unchanged: 
 Data sizes:     COMRAM   BANK0   BANK1   BANK2   BANK3   BANK4   BANK5   BANK6   BANK7   BANK8   BANK9  BANK10  BANK11  BANK12  BANK13  BANK14  BANK15
      Params:         0       4       0       0       0       0       0       0       0       0       0       0       0       0       0       0       0
      Locals:         0       1       0       0       0       0       0       0       0       0       0       0       0       0       0       0       0
      Temps:          0       0       0       0       0       0       0       0       0       0       0       0       0       0       0       0       0
      Totals:         0       5       0       0       0       0       0       0       0       0       0       0       0       0       0       0       0
Total ram usage:        5 bytes
 Hardware stack levels used:    1
 Hardware stack levels required when called:    3
 This function calls:
		Nothing
 This function is called by:
		_limit_method
		_lob_play
		_lob_test
		_utoa
 This function uses a non-reentrant model


 *************** function _exec_diag *****************
 Defined at:
		line 7143 in file "D:\Users\MichaelZarling\Documents\Lobster\cs020_sw\Master_v1p226p34-XC8\EL04\main\master.c"
 Parameters:    Size  Location     Type
		None
 Auto vars:     Size  Location     Type
  argary         32   44[BANK0 ] long [8]
  jj              4    0        long 
  cptr            2   76[BANK0 ] PTR unsigned char 
		 -> lobmain@cursor_chk(17), NULL(0), DiagBuf(32), 
  cmd             2   42[BANK0 ] unsigned int 
  j               1   79[BANK0 ] unsigned char 
  i               1   78[BANK0 ] unsigned char 
  k               1    0        unsigned char 
 Return value:  Size  Location     Type
		None               void
 Registers used:
		wreg, fsr0l, fsr0h, fsr1l, fsr1h, fsr2l, fsr2h, status,2, status,0, pclat, tosl, tblptrl, tblptrh, tblptru, prodl, prodh, cstack
 Tracked objects:
		On entry : 
		On exit  : 
		Unchanged: 
 Data sizes:     COMRAM   BANK0   BANK1   BANK2   BANK3   BANK4   BANK5   BANK6   BANK7   BANK8   BANK9  BANK10  BANK11  BANK12  BANK13  BANK14  BANK15
      Params:         0       0       0       0       0       0       0       0       0       0       0       0       0       0       0       0       0
      Locals:         0      38       0       0       0       0       0       0       0       0       0       0       0       0       0       0       0
      Temps:          0       2       0       0       0       0       0       0       0       0       0       0       0       0       0       0       0
      Totals:         0      40       0       0       0       0       0       0       0       0       0       0       0       0       0       0       0
Total ram usage:       40 bytes
 Hardware stack levels used:    1
 Hardware stack levels required when called:   10
 This function calls:
		_CurShot_diag
		_ForceShot
		_MtrResponse
		_NxtShot_diag
		_a2d_diag
		_bot_diag
		_chip_select
		_dumpmem
		_ee_test
		_elev_diag
		_feed_diag
		_kbdiag
		_nofunc
		_parse_next
		_poweroff
		_putrsDIAG
		_pwm_debug
		_setmem
		_slavecmd
		_spitest
		_stop_all
		_strlen
		_sweep_diag
		_top_diag
 This function is called by:
		_main
 This function uses a non-reentrant model


 *************** function _nofunc *****************
 Defined at:
		line 7078 in file "D:\Users\MichaelZarling\Documents\Lobster\cs020_sw\Master_v1p226p34-XC8\EL04\main\master.c"
 Parameters:    Size  Location     Type
  code            2   22[BANK0 ] int 
  args            2   24[BANK0 ] PTR long 
		 -> StartElevRandom@arg(8), StartSweepRandom@arg(8), exec_diag@argary(32), tmp(4), 
		 -> NULL(0), 
 Auto vars:     Size  Location     Type
		None
 Return value:  Size  Location     Type
		None               void
 Registers used:
		None
 Tracked objects:
		On entry : 
		On exit  : 
		Unchanged: 
 Data sizes:     COMRAM   BANK0   BANK1   BANK2   BANK3   BANK4   BANK5   BANK6   BANK7   BANK8   BANK9  BANK10  BANK11  BANK12  BANK13  BANK14  BANK15
      Params:         0       4       0       0       0       0       0       0       0       0       0       0       0       0       0       0       0
      Locals:         0       0       0       0       0       0       0       0       0       0       0       0       0       0       0       0       0
      Temps:          0       0       0       0       0       0       0       0       0       0       0       0       0       0       0       0       0
      Totals:         0       4       0       0       0       0       0       0       0       0       0       0       0       0       0       0       0
Total ram usage:        4 bytes
 Hardware stack levels used:    1
 Hardware stack levels required when called:    3
 This function calls:
		Nothing
 This function is called by:
		_exec_diag
 This function uses a non-reentrant model


 *************** function _poweroff *****************
 Defined at:
		line 8762 in file "D:\Users\MichaelZarling\Documents\Lobster\cs020_sw\Master_v1p226p34-XC8\EL04\main\master.c"
 Parameters:    Size  Location     Type
  code            2   22[BANK0 ] int 
  args            2   24[BANK0 ] PTR long 
		 -> StartElevRandom@arg(8), StartSweepRandom@arg(8), exec_diag@argary(32), tmp(4), 
		 -> NULL(0), 
 Auto vars:     Size  Location     Type
		None
 Return value:  Size  Location     Type
		None               void
 Registers used:
		wreg, fsr2l, fsr2h, status,2, status,0, prodl, prodh, cstack
 Tracked objects:
		On entry : 
		On exit  : 
		Unchanged: 
 Data sizes:     COMRAM   BANK0   BANK1   BANK2   BANK3   BANK4   BANK5   BANK6   BANK7   BANK8   BANK9  BANK10  BANK11  BANK12  BANK13  BANK14  BANK15
      Params:         0       4       0       0       0       0       0       0       0       0       0       0       0       0       0       0       0
      Locals:         0       0       0       0       0       0       0       0       0       0       0       0       0       0       0       0       0
      Temps:          0       0       0       0       0       0       0       0       0       0       0       0       0       0       0       0       0
      Totals:         0       4       0       0       0       0       0       0       0       0       0       0       0       0       0       0       0
Total ram usage:        4 bytes
 Hardware stack levels used:    1
 Hardware stack levels required when called:    7
 This function calls:
		_CloseCapture1
		_CloseCapture2
		_ClosePWM3
		_ClosePWM4
		_ClosePWM5
		_CloseTimer0
		_CloseTimer1
		_CloseTimer3
		_CloseTimer4
		_save_prog
 This function is called by:
		_main
		_exec_diag
 This function uses a non-reentrant model


 *************** function _kbdiag *****************
 Defined at:
		line 8717 in file "D:\Users\MichaelZarling\Documents\Lobster\cs020_sw\Master_v1p226p34-XC8\EL04\main\master.c"
 Parameters:    Size  Location     Type
  code            2   22[BANK0 ] int 
  args            2   24[BANK0 ] PTR long 
		 -> StartElevRandom@arg(8), StartSweepRandom@arg(8), exec_diag@argary(32), tmp(4), 
		 -> NULL(0), 
 Auto vars:     Size  Location     Type
  uc              1   30[BANK0 ] unsigned char 
  i               1   29[BANK0 ] unsigned char 
  col             1   28[BANK0 ] unsigned char 
 Return value:  Size  Location     Type
		None               void
 Registers used:
		wreg, fsr2l, fsr2h, status,2, status,0, prodl, prodh, cstack
 Tracked objects:
		On entry : 
		On exit  : 
		Unchanged: 
 Data sizes:     COMRAM   BANK0   BANK1   BANK2   BANK3   BANK4   BANK5   BANK6   BANK7   BANK8   BANK9  BANK10  BANK11  BANK12  BANK13  BANK14  BANK15
      Params:         0       4       0       0       0       0       0       0       0       0       0       0       0       0       0       0       0
      Locals:         0       3       0       0       0       0       0       0       0       0       0       0       0       0       0       0       0
      Temps:          0       2       0       0       0       0       0       0       0       0       0       0       0       0       0       0       0
      Totals:         0       9       0       0       0       0       0       0       0       0       0       0       0       0       0       0       0
Total ram usage:        9 bytes
 Hardware stack levels used:    1
 Hardware stack levels required when called:    4
 This function calls:
		_dumphex
		_putrsDIAG
 This function is called by:
		_exec_diag
 This function uses a non-reentrant model


 *************** function _slavecmd *****************
 Defined at:
		line 8567 in file "D:\Users\MichaelZarling\Documents\Lobster\cs020_sw\Master_v1p226p34-XC8\EL04\main\master.c"
 Parameters:    Size  Location     Type
  code            2   22[BANK0 ] int 
  args            2   24[BANK0 ] PTR long 
		 -> StartElevRandom@arg(8), StartSweepRandom@arg(8), exec_diag@argary(32), tmp(4), 
		 -> NULL(0), 
 Auto vars:     Size  Location     Type
  y               4   27[BANK0 ] struct ulp
  c               1   26[BANK0 ] unsigned char 
 Return value:  Size  Location     Type
		None               void
 Registers used:
		wreg, fsr2l, fsr2h, status,2, status,0, prodl, prodh, cstack
 Tracked objects:
		On entry : 
		On exit  : 
		Unchanged: 
 Data sizes:     COMRAM   BANK0   BANK1   BANK2   BANK3   BANK4   BANK5   BANK6   BANK7   BANK8   BANK9  BANK10  BANK11  BANK12  BANK13  BANK14  BANK15
      Params:         0       4       0       0       0       0       0       0       0       0       0       0       0       0       0       0       0
      Locals:         0       5       0       0       0       0       0       0       0       0       0       0       0       0       0       0       0
      Temps:          0       0       0       0       0       0       0       0       0       0       0       0       0       0       0       0       0
      Totals:         0       9       0       0       0       0       0       0       0       0       0       0       0       0       0       0       0
Total ram usage:        9 bytes
 Hardware stack levels used:    1
 Hardware stack levels required when called:    5
 This function calls:
		_BuildCmd
 This function is called by:
		_StopBidirMtrs
		_StartSweepRandom
		_StartElevRandom
		_exec_diag
 This function uses a non-reentrant model


 *************** function _ForceShot *****************
 Defined at:
		line 8857 in file "D:\Users\MichaelZarling\Documents\Lobster\cs020_sw\Master_v1p226p34-XC8\EL04\main\master.c"
 Parameters:    Size  Location     Type
  code            2   22[BANK0 ] int 
  args            2   24[BANK0 ] PTR long 
		 -> StartElevRandom@arg(8), StartSweepRandom@arg(8), exec_diag@argary(32), tmp(4), 
		 -> NULL(0), 
 Auto vars:     Size  Location     Type
		None
 Return value:  Size  Location     Type
		None               void
 Registers used:
		wreg, status,2
 Tracked objects:
		On entry : 
		On exit  : 
		Unchanged: 
 Data sizes:     COMRAM   BANK0   BANK1   BANK2   BANK3   BANK4   BANK5   BANK6   BANK7   BANK8   BANK9  BANK10  BANK11  BANK12  BANK13  BANK14  BANK15
      Params:         0       4       0       0       0       0       0       0       0       0       0       0       0       0       0       0       0
      Locals:         0       0       0       0       0       0       0       0       0       0       0       0       0       0       0       0       0
      Temps:          0       0       0       0       0       0       0       0       0       0       0       0       0       0       0       0       0
      Totals:         0       4       0       0       0       0       0       0       0       0       0       0       0       0       0       0       0
Total ram usage:        4 bytes
 Hardware stack levels used:    1
 Hardware stack levels required when called:    3
 This function calls:
		Nothing
 This function is called by:
		_exec_diag
 This function uses a non-reentrant model


 *************** function _MtrResponse *****************
 Defined at:
		line 8036 in file "D:\Users\MichaelZarling\Documents\Lobster\cs020_sw\Master_v1p226p34-XC8\EL04\main\master.c"
 Parameters:    Size  Location     Type
  code            2   22[BANK0 ] int 
  args            2   24[BANK0 ] PTR long 
		 -> StartElevRandom@arg(8), StartSweepRandom@arg(8), exec_diag@argary(32), tmp(4), 
		 -> NULL(0), 
 Auto vars:     Size  Location     Type
		None
 Return value:  Size  Location     Type
		None               void
 Registers used:
		wreg, status,2, cstack
 Tracked objects:
		On entry : 
		On exit  : 
		Unchanged: 
 Data sizes:     COMRAM   BANK0   BANK1   BANK2   BANK3   BANK4   BANK5   BANK6   BANK7   BANK8   BANK9  BANK10  BANK11  BANK12  BANK13  BANK14  BANK15
      Params:         0       4       0       0       0       0       0       0       0       0       0       0       0       0       0       0       0
      Locals:         0       0       0       0       0       0       0       0       0       0       0       0       0       0       0       0       0
      Temps:          0       0       0       0       0       0       0       0       0       0       0       0       0       0       0       0       0
      Totals:         0       4       0       0       0       0       0       0       0       0       0       0       0       0       0       0       0
Total ram usage:        4 bytes
 Hardware stack levels used:    1
 Hardware stack levels required when called:    4
 This function calls:
		_dumphex
 This function is called by:
		_exec_diag
 This function uses a non-reentrant model


 *************** function _NxtShot_diag *****************
 Defined at:
		line 8007 in file "D:\Users\MichaelZarling\Documents\Lobster\cs020_sw\Master_v1p226p34-XC8\EL04\main\master.c"
 Parameters:    Size  Location     Type
  code            2   22[BANK0 ] int 
  args            2   24[BANK0 ] PTR long 
		 -> StartElevRandom@arg(8), StartSweepRandom@arg(8), exec_diag@argary(32), tmp(4), 
		 -> NULL(0), 
 Auto vars:     Size  Location     Type
		None
 Return value:  Size  Location     Type
		None               void
 Registers used:
		wreg, fsr2l, fsr2h, status,2, status,0
 Tracked objects:
		On entry : 
		On exit  : 
		Unchanged: 
 Data sizes:     COMRAM   BANK0   BANK1   BANK2   BANK3   BANK4   BANK5   BANK6   BANK7   BANK8   BANK9  BANK10  BANK11  BANK12  BANK13  BANK14  BANK15
      Params:         0       4       0       0       0       0       0       0       0       0       0       0       0       0       0       0       0
      Locals:         0       0       0       0       0       0       0       0       0       0       0       0       0       0       0       0       0
      Temps:          0       2       0       0       0       0       0       0       0       0       0       0       0       0       0       0       0
      Totals:         0       6       0       0       0       0       0       0       0       0       0       0       0       0       0       0       0
Total ram usage:        6 bytes
 Hardware stack levels used:    1
 Hardware stack levels required when called:    3
 This function calls:
		Nothing
 This function is called by:
		_exec_diag
 This function uses a non-reentrant model


 *************** function _CurShot_diag *****************
 Defined at:
		line 7908 in file "D:\Users\MichaelZarling\Documents\Lobster\cs020_sw\Master_v1p226p34-XC8\EL04\main\master.c"
 Parameters:    Size  Location     Type
  code            2   22[BANK0 ] int 
  args            2   24[BANK0 ] PTR long 
		 -> StartElevRandom@arg(8), StartSweepRandom@arg(8), exec_diag@argary(32), tmp(4), 
		 -> NULL(0), 
 Auto vars:     Size  Location     Type
		None
 Return value:  Size  Location     Type
		None               void
 Registers used:
		wreg, fsr2l, fsr2h, status,2, status,0, tblptrl, tblptrh, tblptru, prodl, prodh, cstack
 Tracked objects:
		On entry : 
		On exit  : 
		Unchanged: 
 Data sizes:     COMRAM   BANK0   BANK1   BANK2   BANK3   BANK4   BANK5   BANK6   BANK7   BANK8   BANK9  BANK10  BANK11  BANK12  BANK13  BANK14  BANK15
      Params:         0       4       0       0       0       0       0       0       0       0       0       0       0       0       0       0       0
      Locals:         0       0       0       0       0       0       0       0       0       0       0       0       0       0       0       0       0
      Temps:          0       2       0       0       0       0       0       0       0       0       0       0       0       0       0       0       0
      Totals:         0       6       0       0       0       0       0       0       0       0       0       0       0       0       0       0       0
Total ram usage:        6 bytes
 Hardware stack levels used:    1
 Hardware stack levels required when called:    9
 This function calls:
		_BuildCmd
		_SetFeedRate
		_StartBot
		_StartFeed
		_StartFeedCont
		_StartTop
 This function is called by:
		_exec_diag
 This function uses a non-reentrant model


 *************** function _elev_diag *****************
 Defined at:
		line 7895 in file "D:\Users\MichaelZarling\Documents\Lobster\cs020_sw\Master_v1p226p34-XC8\EL04\main\master.c"
 Parameters:    Size  Location     Type
  code            2   22[BANK0 ] int 
  args            2   24[BANK0 ] PTR long 
		 -> StartElevRandom@arg(8), StartSweepRandom@arg(8), exec_diag@argary(32), tmp(4), 
		 -> NULL(0), 
 Auto vars:     Size  Location     Type
		None
 Return value:  Size  Location     Type
		None               void
 Registers used:
		wreg, fsr2l, fsr2h, status,2, status,0
 Tracked objects:
		On entry : 
		On exit  : 
		Unchanged: 
 Data sizes:     COMRAM   BANK0   BANK1   BANK2   BANK3   BANK4   BANK5   BANK6   BANK7   BANK8   BANK9  BANK10  BANK11  BANK12  BANK13  BANK14  BANK15
      Params:         0       4       0       0       0       0       0       0       0       0       0       0       0       0       0       0       0
      Locals:         0       0       0       0       0       0       0       0       0       0       0       0       0       0       0       0       0
      Temps:          0       2       0       0       0       0       0       0       0       0       0       0       0       0       0       0       0
      Totals:         0       6       0       0       0       0       0       0       0       0       0       0       0       0       0       0       0
Total ram usage:        6 bytes
 Hardware stack levels used:    1
 Hardware stack levels required when called:    3
 This function calls:
		Nothing
 This function is called by:
		_exec_diag
 This function uses a non-reentrant model


 *************** function _sweep_diag *****************
 Defined at:
		line 7881 in file "D:\Users\MichaelZarling\Documents\Lobster\cs020_sw\Master_v1p226p34-XC8\EL04\main\master.c"
 Parameters:    Size  Location     Type
  code            2   22[BANK0 ] int 
  args            2   24[BANK0 ] PTR long 
		 -> StartElevRandom@arg(8), StartSweepRandom@arg(8), exec_diag@argary(32), tmp(4), 
		 -> NULL(0), 
 Auto vars:     Size  Location     Type
		None
 Return value:  Size  Location     Type
		None               void
 Registers used:
		wreg, fsr2l, fsr2h, status,2, status,0
 Tracked objects:
		On entry : 
		On exit  : 
		Unchanged: 
 Data sizes:     COMRAM   BANK0   BANK1   BANK2   BANK3   BANK4   BANK5   BANK6   BANK7   BANK8   BANK9  BANK10  BANK11  BANK12  BANK13  BANK14  BANK15
      Params:         0       4       0       0       0       0       0       0       0       0       0       0       0       0       0       0       0
      Locals:         0       0       0       0       0       0       0       0       0       0       0       0       0       0       0       0       0
      Temps:          0       2       0       0       0       0       0       0       0       0       0       0       0       0       0       0       0
      Totals:         0       6       0       0       0       0       0       0       0       0       0       0       0       0       0       0       0
Total ram usage:        6 bytes
 Hardware stack levels used:    1
 Hardware stack levels required when called:    3
 This function calls:
		Nothing
 This function is called by:
		_exec_diag
 This function uses a non-reentrant model


 *************** function _a2d_diag *****************
 Defined at:
		line 7359 in file "D:\Users\MichaelZarling\Documents\Lobster\cs020_sw\Master_v1p226p34-XC8\EL04\main\master.c"
 Parameters:    Size  Location     Type
  code            2   22[BANK0 ] int 
  args            2   24[BANK0 ] PTR long 
		 -> StartElevRandom@arg(8), StartSweepRandom@arg(8), exec_diag@argary(32), tmp(4), 
		 -> NULL(0), 
 Auto vars:     Size  Location     Type
  i               2   32[BANK0 ] int 
  j               2   30[BANK0 ] int 
  val             4   34[BANK0 ] unsigned long 
  i               2   38[BANK0 ] int 
 Return value:  Size  Location     Type
		None               void
 Registers used:
		wreg, fsr2l, fsr2h, status,2, status,0, tblptrl, tblptrh, tblptru, cstack
 Tracked objects:
		On entry : 
		On exit  : 
		Unchanged: 
 Data sizes:     COMRAM   BANK0   BANK1   BANK2   BANK3   BANK4   BANK5   BANK6   BANK7   BANK8   BANK9  BANK10  BANK11  BANK12  BANK13  BANK14  BANK15
      Params:         0       4       0       0       0       0       0       0       0       0       0       0       0       0       0       0       0
      Locals:         0      10       0       0       0       0       0       0       0       0       0       0       0       0       0       0       0
      Temps:          0       4       0       0       0       0       0       0       0       0       0       0       0       0       0       0       0
      Totals:         0      18       0       0       0       0       0       0       0       0       0       0       0       0       0       0       0
Total ram usage:       18 bytes
 Hardware stack levels used:    1
 Hardware stack levels required when called:    5
 This function calls:
		_PgaGain
		_dumpaddr
		_dumphex
		_dumplong
		_dumpshort
 This function is called by:
		_exec_diag
 This function uses a non-reentrant model


 *************** function _pwm_debug *****************
 Defined at:
		line 8545 in file "D:\Users\MichaelZarling\Documents\Lobster\cs020_sw\Master_v1p226p34-XC8\EL04\main\master.c"
 Parameters:    Size  Location     Type
  code            2   22[BANK0 ] int 
  args            2   24[BANK0 ] PTR long 
		 -> StartElevRandom@arg(8), StartSweepRandom@arg(8), exec_diag@argary(32), tmp(4), 
		 -> NULL(0), 
 Auto vars:     Size  Location     Type
		None
 Return value:  Size  Location     Type
		None               void
 Registers used:
		wreg, status,2, status,0, cstack
 Tracked objects:
		On entry : 
		On exit  : 
		Unchanged: 
 Data sizes:     COMRAM   BANK0   BANK1   BANK2   BANK3   BANK4   BANK5   BANK6   BANK7   BANK8   BANK9  BANK10  BANK11  BANK12  BANK13  BANK14  BANK15
      Params:         0       4       0       0       0       0       0       0       0       0       0       0       0       0       0       0       0
      Locals:         0       0       0       0       0       0       0       0       0       0       0       0       0       0       0       0       0
      Temps:          0       2       0       0       0       0       0       0       0       0       0       0       0       0       0       0       0
      Totals:         0       6       0       0       0       0       0       0       0       0       0       0       0       0       0       0       0
Total ram usage:        6 bytes
 Hardware stack levels used:    1
 Hardware stack levels required when called:    4
 This function calls:
		_dumpaddr
		_dumplong
 This function is called by:
		_exec_diag
 This function uses a non-reentrant model


 *************** function _ee_test *****************
 Defined at:
		line 7542 in file "D:\Users\MichaelZarling\Documents\Lobster\cs020_sw\Master_v1p226p34-XC8\EL04\main\master.c"
 Parameters:    Size  Location     Type
  code            2   22[BANK0 ] int 
  args            2   24[BANK0 ] PTR long 
		 -> StartElevRandom@arg(8), StartSweepRandom@arg(8), exec_diag@argary(32), tmp(4), 
		 -> NULL(0), 
 Auto vars:     Size  Location     Type
  addr            2   33[BANK0 ] unsigned int 
  status          1   35[BANK0 ] unsigned char 
  data            1   32[BANK0 ] unsigned char 
  status1         1   31[BANK0 ] unsigned char 
  status3         1   30[BANK0 ] unsigned char 
  status2         1   29[BANK0 ] unsigned char 
 Return value:  Size  Location     Type
		None               void
 Registers used:
		wreg, fsr2l, fsr2h, status,2, status,0, prodl, prodh, cstack
 Tracked objects:
		On entry : 
		On exit  : 
		Unchanged: 
 Data sizes:     COMRAM   BANK0   BANK1   BANK2   BANK3   BANK4   BANK5   BANK6   BANK7   BANK8   BANK9  BANK10  BANK11  BANK12  BANK13  BANK14  BANK15
      Params:         0       4       0       0       0       0       0       0       0       0       0       0       0       0       0       0       0
      Locals:         0       7       0       0       0       0       0       0       0       0       0       0       0       0       0       0       0
      Temps:          0       3       0       0       0       0       0       0       0       0       0       0       0       0       0       0       0
      Totals:         0      14       0       0       0       0       0       0       0       0       0       0       0       0       0       0       0
Total ram usage:       14 bytes
 Hardware stack levels used:    1
 Hardware stack levels required when called:    6
 This function calls:
		_ChipDeSelect
		_ChipReserve
		_Delay1KTCYx
		_DisableSlaveSPI
		_EnableSlaveSPI
		_ReadSPI1
		_SEERead
		_SEEWrite
		_WriteSPI1
		_dumphex
		_dumplong
		_putrsDIAG
 This function is called by:
		_exec_diag
 This function uses a non-reentrant model


 *************** function _chip_select *****************
 Defined at:
		line 7740 in file "D:\Users\MichaelZarling\Documents\Lobster\cs020_sw\Master_v1p226p34-XC8\EL04\main\master.c"
 Parameters:    Size  Location     Type
  code            2   22[BANK0 ] int 
  args            2   24[BANK0 ] PTR long 
		 -> StartElevRandom@arg(8), StartSweepRandom@arg(8), exec_diag@argary(32), tmp(4), 
		 -> NULL(0), 
 Auto vars:     Size  Location     Type
		None
 Return value:  Size  Location     Type
		None               void
 Registers used:
		wreg, fsr2l, fsr2h, status,2, status,0, cstack
 Tracked objects:
		On entry : 
		On exit  : 
		Unchanged: 
 Data sizes:     COMRAM   BANK0   BANK1   BANK2   BANK3   BANK4   BANK5   BANK6   BANK7   BANK8   BANK9  BANK10  BANK11  BANK12  BANK13  BANK14  BANK15
      Params:         0       4       0       0       0       0       0       0       0       0       0       0       0       0       0       0       0
      Locals:         0       0       0       0       0       0       0       0       0       0       0       0       0       0       0       0       0
      Temps:          0       0       0       0       0       0       0       0       0       0       0       0       0       0       0       0       0
      Totals:         0       4       0       0       0       0       0       0       0       0       0       0       0       0       0       0       0
Total ram usage:        4 bytes
 Hardware stack levels used:    1
 Hardware stack levels required when called:    4
 This function calls:
		_ChipSelect
 This function is called by:
		_exec_diag
 This function uses a non-reentrant model


 *************** function _stop_all *****************
 Defined at:
		line 8531 in file "D:\Users\MichaelZarling\Documents\Lobster\cs020_sw\Master_v1p226p34-XC8\EL04\main\master.c"
 Parameters:    Size  Location     Type
  code            2   22[BANK0 ] int 
  args            2   24[BANK0 ] PTR long 
		 -> StartElevRandom@arg(8), StartSweepRandom@arg(8), exec_diag@argary(32), tmp(4), 
		 -> NULL(0), 
 Auto vars:     Size  Location     Type
		None
 Return value:  Size  Location     Type
		None               void
 Registers used:
		wreg, fsr2l, fsr2h, status,2, status,0, prodl, prodh, cstack
 Tracked objects:
		On entry : 
		On exit  : 
		Unchanged: 
 Data sizes:     COMRAM   BANK0   BANK1   BANK2   BANK3   BANK4   BANK5   BANK6   BANK7   BANK8   BANK9  BANK10  BANK11  BANK12  BANK13  BANK14  BANK15
      Params:         0       4       0       0       0       0       0       0       0       0       0       0       0       0       0       0       0
      Locals:         0       0       0       0       0       0       0       0       0       0       0       0       0       0       0       0       0
      Temps:          0       0       0       0       0       0       0       0       0       0       0       0       0       0       0       0       0
      Totals:         0       4       0       0       0       0       0       0       0       0       0       0       0       0       0       0       0
Total ram usage:        4 bytes
 Hardware stack levels used:    1
 Hardware stack levels required when called:    7
 This function calls:
		_StopBidirMtrs
		_StopBotMtr
		_StopFeedMtr
		_StopTopMtr
 This function is called by:
		_main
		_StartTop
		_StartBot
		_CheckBattery
		_set_serve
		_lob_error
		_exec_diag
 This function uses a non-reentrant model


 *************** function _bot_diag *****************
 Defined at:
		line 8498 in file "D:\Users\MichaelZarling\Documents\Lobster\cs020_sw\Master_v1p226p34-XC8\EL04\main\master.c"
 Parameters:    Size  Location     Type
  code            2   22[BANK0 ] int 
  args            2   24[BANK0 ] PTR long 
		 -> StartElevRandom@arg(8), StartSweepRandom@arg(8), exec_diag@argary(32), tmp(4), 
		 -> NULL(0), 
 Auto vars:     Size  Location     Type
  ix              2    0        unsigned int 
  delta           2    0        unsigned int 
 Return value:  Size  Location     Type
		None               void
 Registers used:
		wreg, fsr2l, fsr2h, status,2, status,0, tblptrl, tblptrh, tblptru, prodl, prodh, cstack
 Tracked objects:
		On entry : 
		On exit  : 
		Unchanged: 
 Data sizes:     COMRAM   BANK0   BANK1   BANK2   BANK3   BANK4   BANK5   BANK6   BANK7   BANK8   BANK9  BANK10  BANK11  BANK12  BANK13  BANK14  BANK15
      Params:         0       4       0       0       0       0       0       0       0       0       0       0       0       0       0       0       0
      Locals:         0       0       0       0       0       0       0       0       0       0       0       0       0       0       0       0       0
      Temps:          0       2       0       0       0       0       0       0       0       0       0       0       0       0       0       0       0
      Totals:         0       6       0       0       0       0       0       0       0       0       0       0       0       0       0       0       0
Total ram usage:        6 bytes
 Hardware stack levels used:    1
 Hardware stack levels required when called:    9
 This function calls:
		_SetBotPwm
		_StartBot
		_StopBotMtr
		_UpdBotPer
		_dumpaddr
		_dumplong
 This function is called by:
		_exec_diag
 This function uses a non-reentrant model


 *************** function _feed_diag *****************
 Defined at:
		line 8217 in file "D:\Users\MichaelZarling\Documents\Lobster\cs020_sw\Master_v1p226p34-XC8\EL04\main\master.c"
 Parameters:    Size  Location     Type
  code            2   22[BANK0 ] int 
  args            2   24[BANK0 ] PTR long 
		 -> StartElevRandom@arg(8), StartSweepRandom@arg(8), exec_diag@argary(32), tmp(4), 
		 -> NULL(0), 
 Auto vars:     Size  Location     Type
		None
 Return value:  Size  Location     Type
		None               void
 Registers used:
		wreg, fsr2l, fsr2h, status,2, status,0, cstack
 Tracked objects:
		On entry : 
		On exit  : 
		Unchanged: 
 Data sizes:     COMRAM   BANK0   BANK1   BANK2   BANK3   BANK4   BANK5   BANK6   BANK7   BANK8   BANK9  BANK10  BANK11  BANK12  BANK13  BANK14  BANK15
      Params:         0       4       0       0       0       0       0       0       0       0       0       0       0       0       0       0       0
      Locals:         0       0       0       0       0       0       0       0       0       0       0       0       0       0       0       0       0
      Temps:          0       4       0       0       0       0       0       0       0       0       0       0       0       0       0       0       0
      Totals:         0       8       0       0       0       0       0       0       0       0       0       0       0       0       0       0       0
Total ram usage:        8 bytes
 Hardware stack levels used:    1
 Hardware stack levels required when called:    5
 This function calls:
		_FeedMtrDone
		_SetFeedImm
		_SetFeedPwm
		_SetFeedRate
		_StartFeed
		_StopFeedMtr
		_putrsDIAG
 This function is called by:
		_exec_diag
 This function uses a non-reentrant model


 *************** function _spitest *****************
 Defined at:
		line 7333 in file "D:\Users\MichaelZarling\Documents\Lobster\cs020_sw\Master_v1p226p34-XC8\EL04\main\master.c"
 Parameters:    Size  Location     Type
  code            2   22[BANK0 ] int 
  args            2   24[BANK0 ] PTR long 
		 -> StartElevRandom@arg(8), StartSweepRandom@arg(8), exec_diag@argary(32), tmp(4), 
		 -> NULL(0), 
 Auto vars:     Size  Location     Type
  data            1   28[BANK0 ] unsigned char 
  status          1    0        unsigned char 
 Return value:  Size  Location     Type
		None               void
 Registers used:
		wreg, fsr2l, fsr2h, status,2, status,0, cstack
 Tracked objects:
		On entry : 
		On exit  : 
		Unchanged: 
 Data sizes:     COMRAM   BANK0   BANK1   BANK2   BANK3   BANK4   BANK5   BANK6   BANK7   BANK8   BANK9  BANK10  BANK11  BANK12  BANK13  BANK14  BANK15
      Params:         0       4       0       0       0       0       0       0       0       0       0       0       0       0       0       0       0
      Locals:         0       1       0       0       0       0       0       0       0       0       0       0       0       0       0       0       0
      Temps:          0       2       0       0       0       0       0       0       0       0       0       0       0       0       0       0       0
      Totals:         0       7       0       0       0       0       0       0       0       0       0       0       0       0       0       0       0
Total ram usage:        7 bytes
 Hardware stack levels used:    1
 Hardware stack levels required when called:    4
 This function calls:
		_ChipDeSelect
		_ChipSelect
		_ReadSPI1
		_WriteSPI1
		_dumphex
		_putrsDIAG
 This function is called by:
		_exec_diag
 This function uses a non-reentrant model


 *************** function _setmem *****************
 Defined at:
		line 7204 in file "D:\Users\MichaelZarling\Documents\Lobster\cs020_sw\Master_v1p226p34-XC8\EL04\main\master.c"
 Parameters:    Size  Location     Type
  code            2   22[BANK0 ] int 
  args            2   24[BANK0 ] PTR long 
		 -> StartElevRandom@arg(8), StartSweepRandom@arg(8), exec_diag@argary(32), tmp(4), 
		 -> NULL(0), 
 Auto vars:     Size  Location     Type
  cptr            2   26[BANK0 ] PTR unsigned char 
		 -> RAM(3935), 
 Return value:  Size  Location     Type
		None               void
 Registers used:
		wreg, fsr1l, fsr1h, fsr2l, fsr2h, status,2, status,0
 Tracked objects:
		On entry : 
		On exit  : 
		Unchanged: 
 Data sizes:     COMRAM   BANK0   BANK1   BANK2   BANK3   BANK4   BANK5   BANK6   BANK7   BANK8   BANK9  BANK10  BANK11  BANK12  BANK13  BANK14  BANK15
      Params:         0       4       0       0       0       0       0       0       0       0       0       0       0       0       0       0       0
      Locals:         0       2       0       0       0       0       0       0       0       0       0       0       0       0       0       0       0
      Temps:          0       0       0       0       0       0       0       0       0       0       0       0       0       0       0       0       0
      Totals:         0       6       0       0       0       0       0       0       0       0       0       0       0       0       0       0       0
Total ram usage:        6 bytes
 Hardware stack levels used:    1
 Hardware stack levels required when called:    3
 This function calls:
		Nothing
 This function is called by:
		_exec_diag
 This function uses a non-reentrant model


 *************** function _dumpmem *****************
 Defined at:
		line 7185 in file "D:\Users\MichaelZarling\Documents\Lobster\cs020_sw\Master_v1p226p34-XC8\EL04\main\master.c"
 Parameters:    Size  Location     Type
  code            2   22[BANK0 ] int 
  args            2   24[BANK0 ] PTR long 
		 -> StartElevRandom@arg(8), StartSweepRandom@arg(8), exec_diag@argary(32), tmp(4), 
		 -> NULL(0), 
 Auto vars:     Size  Location     Type
  ix              4   27[BANK0 ] unsigned long 
  ix1             2   31[BANK0 ] int 
 Return value:  Size  Location     Type
		None               void
 Registers used:
		wreg, fsr2l, fsr2h, status,2, status,0, prodl, cstack
 Tracked objects:
		On entry : 
		On exit  : 
		Unchanged: 
 Data sizes:     COMRAM   BANK0   BANK1   BANK2   BANK3   BANK4   BANK5   BANK6   BANK7   BANK8   BANK9  BANK10  BANK11  BANK12  BANK13  BANK14  BANK15
      Params:         0       4       0       0       0       0       0       0       0       0       0       0       0       0       0       0       0
      Locals:         0       6       0       0       0       0       0       0       0       0       0       0       0       0       0       0       0
      Temps:          0       1       0       0       0       0       0       0       0       0       0       0       0       0       0       0       0
      Totals:         0      11       0       0       0       0       0       0       0       0       0       0       0       0       0       0       0
Total ram usage:       11 bytes
 Hardware stack levels used:    1
 Hardware stack levels required when called:    4
 This function calls:
		_dumpaddr
		_dumphex
		_putrsDIAG
		_rbuf_ins
 This function is called by:
		_exec_diag
 This function uses a non-reentrant model


 *************** function _top_diag *****************
 Defined at:
		line 8345 in file "D:\Users\MichaelZarling\Documents\Lobster\cs020_sw\Master_v1p226p34-XC8\EL04\main\master.c"
 Parameters:    Size  Location     Type
  code            2   22[BANK0 ] int 
  args            2   24[BANK0 ] PTR long 
		 -> StartElevRandom@arg(8), StartSweepRandom@arg(8), exec_diag@argary(32), tmp(4), 
		 -> NULL(0), 
 Auto vars:     Size  Location     Type
  ix              2    0        unsigned int 
  delta           2    0        unsigned int 
 Return value:  Size  Location     Type
		None               void
 Registers used:
		wreg, fsr2l, fsr2h, status,2, status,0, tblptrl, tblptrh, tblptru, prodl, prodh, cstack
 Tracked objects:
		On entry : 
		On exit  : 
		Unchanged: 
 Data sizes:     COMRAM   BANK0   BANK1   BANK2   BANK3   BANK4   BANK5   BANK6   BANK7   BANK8   BANK9  BANK10  BANK11  BANK12  BANK13  BANK14  BANK15
      Params:         0       4       0       0       0       0       0       0       0       0       0       0       0       0       0       0       0
      Locals:         0       0       0       0       0       0       0       0       0       0       0       0       0       0       0       0       0
      Temps:          0       2       0       0       0       0       0       0       0       0       0       0       0       0       0       0       0
      Totals:         0       6       0       0       0       0       0       0       0       0       0       0       0       0       0       0       0
Total ram usage:        6 bytes
 Hardware stack levels used:    1
 Hardware stack levels required when called:    9
 This function calls:
		_SetTopPwm
		_StartTop
		_StopTopMtr
		_UpdTopPer
		_dumpaddr
		_dumplong
		_putrsDIAG
 This function is called by:
		_exec_diag
 This function uses a non-reentrant model


 *************** function _UpdTopPer *****************
 Defined at:
		line 1219 in file "D:\Users\MichaelZarling\Documents\Lobster\cs020_sw\Master_v1p226p34-XC8\EL04\main\master.c"
 Parameters:    Size  Location     Type
		None
 Auto vars:     Size  Location     Type
  top_delta1      2    6[BANK0 ] int 
 Return value:  Size  Location     Type
		None               void
 Registers used:
		wreg, fsr2l, fsr2h, status,2, status,0, prodl, prodh, cstack
 Tracked objects:
		On entry : 
		On exit  : 
		Unchanged: 
 Data sizes:     COMRAM   BANK0   BANK1   BANK2   BANK3   BANK4   BANK5   BANK6   BANK7   BANK8   BANK9  BANK10  BANK11  BANK12  BANK13  BANK14  BANK15
      Params:         0       0       0       0       0       0       0       0       0       0       0       0       0       0       0       0       0
      Locals:         0       2       0       0       0       0       0       0       0       0       0       0       0       0       0       0       0
      Temps:          0       3       0       0       0       0       0       0       0       0       0       0       0       0       0       0       0
      Totals:         0       5       0       0       0       0       0       0       0       0       0       0       0       0       0       0       0
Total ram usage:        5 bytes
 Hardware stack levels used:    1
 Hardware stack levels required when called:    4
 This function calls:
		_putrsDIAG
 This function is called by:
		_main
		_top_diag
 This function uses a non-reentrant model


 *************** function _CloseTimer4 *****************
 Defined at:
		line 14 in file "C:\Program Files (x86)\Microchip\xc8\v1.33\sources\pic18\plib\Timers\t4close.c"
 Parameters:    Size  Location     Type
		None
 Auto vars:     Size  Location     Type
		None
 Return value:  Size  Location     Type
		None               void
 Registers used:
		None
 Tracked objects:
		On entry : 
		On exit  : 
		Unchanged: 
 Data sizes:     COMRAM   BANK0   BANK1   BANK2   BANK3   BANK4   BANK5   BANK6   BANK7   BANK8   BANK9  BANK10  BANK11  BANK12  BANK13  BANK14  BANK15
      Params:         0       0       0       0       0       0       0       0       0       0       0       0       0       0       0       0       0
      Locals:         0       0       0       0       0       0       0       0       0       0       0       0       0       0       0       0       0
      Temps:          0       0       0       0       0       0       0       0       0       0       0       0       0       0       0       0       0
      Totals:         0       0       0       0       0       0       0       0       0       0       0       0       0       0       0       0       0
Total ram usage:        0 bytes
 Hardware stack levels used:    1
 Hardware stack levels required when called:    3
 This function calls:
		Nothing
 This function is called by:
		_poweroff
 This function uses a non-reentrant model


 *************** function _CloseTimer3 *****************
 Defined at:
		line 12 in file "C:\Program Files (x86)\Microchip\xc8\v1.33\sources\pic18\plib\Timers\t3close.c"
 Parameters:    Size  Location     Type
		None
 Auto vars:     Size  Location     Type
		None
 Return value:  Size  Location     Type
		None               void
 Registers used:
		None
 Tracked objects:
		On entry : 
		On exit  : 
		Unchanged: 
 Data sizes:     COMRAM   BANK0   BANK1   BANK2   BANK3   BANK4   BANK5   BANK6   BANK7   BANK8   BANK9  BANK10  BANK11  BANK12  BANK13  BANK14  BANK15
      Params:         0       0       0       0       0       0       0       0       0       0       0       0       0       0       0       0       0
      Locals:         0       0       0       0       0       0       0       0       0       0       0       0       0       0       0       0       0
      Temps:          0       0       0       0       0       0       0       0       0       0       0       0       0       0       0       0       0
      Totals:         0       0       0       0       0       0       0       0       0       0       0       0       0       0       0       0       0
Total ram usage:        0 bytes
 Hardware stack levels used:    1
 Hardware stack levels required when called:    3
 This function calls:
		Nothing
 This function is called by:
		_poweroff
 This function uses a non-reentrant model


 *************** function _CloseTimer1 *****************
 Defined at:
		line 15 in file "C:\Program Files (x86)\Microchip\xc8\v1.33\sources\pic18\plib\Timers\t1close.c"
 Parameters:    Size  Location     Type
		None
 Auto vars:     Size  Location     Type
		None
 Return value:  Size  Location     Type
		None               void
 Registers used:
		None
 Tracked objects:
		On entry : 
		On exit  : 
		Unchanged: 
 Data sizes:     COMRAM   BANK0   BANK1   BANK2   BANK3   BANK4   BANK5   BANK6   BANK7   BANK8   BANK9  BANK10  BANK11  BANK12  BANK13  BANK14  BANK15
      Params:         0       0       0       0       0       0       0       0       0       0       0       0       0       0       0       0       0
      Locals:         0       0       0       0       0       0       0       0       0       0       0       0       0       0       0       0       0
      Temps:          0       0       0       0       0       0       0       0       0       0       0       0       0       0       0       0       0
      Totals:         0       0       0       0       0       0       0       0       0       0       0       0       0       0       0       0       0
Total ram usage:        0 bytes
 Hardware stack levels used:    1
 Hardware stack levels required when called:    3
 This function calls:
		Nothing
 This function is called by:
		_poweroff
 This function uses a non-reentrant model


 *************** function _CloseTimer0 *****************
 Defined at:
		line 15 in file "C:\Program Files (x86)\Microchip\xc8\v1.33\sources\pic18\plib\Timers\t0close.c"
 Parameters:    Size  Location     Type
		None
 Auto vars:     Size  Location     Type
		None
 Return value:  Size  Location     Type
		None               void
 Registers used:
		None
 Tracked objects:
		On entry : 
		On exit  : 
		Unchanged: 
 Data sizes:     COMRAM   BANK0   BANK1   BANK2   BANK3   BANK4   BANK5   BANK6   BANK7   BANK8   BANK9  BANK10  BANK11  BANK12  BANK13  BANK14  BANK15
      Params:         0       0       0       0       0       0       0       0       0       0       0       0       0       0       0       0       0
      Locals:         0       0       0       0       0       0       0       0       0       0       0       0       0       0       0       0       0
      Temps:          0       0       0       0       0       0       0       0       0       0       0       0       0       0       0       0       0
      Totals:         0       0       0       0       0       0       0       0       0       0       0       0       0       0       0       0       0
Total ram usage:        0 bytes
 Hardware stack levels used:    1
 Hardware stack levels required when called:    3
 This function calls:
		Nothing
 This function is called by:
		_poweroff
 This function uses a non-reentrant model


 *************** function _ClosePWM5 *****************
 Defined at:
		line 14 in file "C:\Program Files (x86)\Microchip\xc8\v1.33\sources\pic18\plib\PWM\pw5close.c"
 Parameters:    Size  Location     Type
		None
 Auto vars:     Size  Location     Type
		None
 Return value:  Size  Location     Type
		None               void
 Registers used:
		None
 Tracked objects:
		On entry : 
		On exit  : 
		Unchanged: 
 Data sizes:     COMRAM   BANK0   BANK1   BANK2   BANK3   BANK4   BANK5   BANK6   BANK7   BANK8   BANK9  BANK10  BANK11  BANK12  BANK13  BANK14  BANK15
      Params:         0       0       0       0       0       0       0       0       0       0       0       0       0       0       0       0       0
      Locals:         0       0       0       0       0       0       0       0       0       0       0       0       0       0       0       0       0
      Temps:          0       0       0       0       0       0       0       0       0       0       0       0       0       0       0       0       0
      Totals:         0       0       0       0       0       0       0       0       0       0       0       0       0       0       0       0       0
Total ram usage:        0 bytes
 Hardware stack levels used:    1
 Hardware stack levels required when called:    3
 This function calls:
		Nothing
 This function is called by:
		_poweroff
 This function uses a non-reentrant model


 *************** function _ClosePWM4 *****************
 Defined at:
		line 15 in file "C:\Program Files (x86)\Microchip\xc8\v1.33\sources\pic18\plib\PWM\pw4close.c"
 Parameters:    Size  Location     Type
		None
 Auto vars:     Size  Location     Type
		None
 Return value:  Size  Location     Type
		None               void
 Registers used:
		None
 Tracked objects:
		On entry : 
		On exit  : 
		Unchanged: 
 Data sizes:     COMRAM   BANK0   BANK1   BANK2   BANK3   BANK4   BANK5   BANK6   BANK7   BANK8   BANK9  BANK10  BANK11  BANK12  BANK13  BANK14  BANK15
      Params:         0       0       0       0       0       0       0       0       0       0       0       0       0       0       0       0       0
      Locals:         0       0       0       0       0       0       0       0       0       0       0       0       0       0       0       0       0
      Temps:          0       0       0       0       0       0       0       0       0       0       0       0       0       0       0       0       0
      Totals:         0       0       0       0       0       0       0       0       0       0       0       0       0       0       0       0       0
Total ram usage:        0 bytes
 Hardware stack levels used:    1
 Hardware stack levels required when called:    3
 This function calls:
		Nothing
 This function is called by:
		_poweroff
 This function uses a non-reentrant model


 *************** function _ClosePWM3 *****************
 Defined at:
		line 13 in file "C:\Program Files (x86)\Microchip\xc8\v1.33\sources\pic18\plib\PWM\pw3close.c"
 Parameters:    Size  Location     Type
		None
 Auto vars:     Size  Location     Type
		None
 Return value:  Size  Location     Type
		None               void
 Registers used:
		None
 Tracked objects:
		On entry : 
		On exit  : 
		Unchanged: 
 Data sizes:     COMRAM   BANK0   BANK1   BANK2   BANK3   BANK4   BANK5   BANK6   BANK7   BANK8   BANK9  BANK10  BANK11  BANK12  BANK13  BANK14  BANK15
      Params:         0       0       0       0       0       0       0       0       0       0       0       0       0       0       0       0       0
      Locals:         0       0       0       0       0       0       0       0       0       0       0       0       0       0       0       0       0
      Temps:          0       0       0       0       0       0       0       0       0       0       0       0       0       0       0       0       0
      Totals:         0       0       0       0       0       0       0       0       0       0       0       0       0       0       0       0       0
Total ram usage:        0 bytes
 Hardware stack levels used:    1
 Hardware stack levels required when called:    3
 This function calls:
		Nothing
 This function is called by:
		_poweroff
 This function uses a non-reentrant model


 *************** function _CloseCapture2 *****************
 Defined at:
		line 28 in file "C:\Program Files (x86)\Microchip\xc8\v1.33\sources\pic18\plib\CCP\cp2close.c"
 Parameters:    Size  Location     Type
		None
 Auto vars:     Size  Location     Type
		None
 Return value:  Size  Location     Type
		None               void
 Registers used:
		None
 Tracked objects:
		On entry : 
		On exit  : 
		Unchanged: 
 Data sizes:     COMRAM   BANK0   BANK1   BANK2   BANK3   BANK4   BANK5   BANK6   BANK7   BANK8   BANK9  BANK10  BANK11  BANK12  BANK13  BANK14  BANK15
      Params:         0       0       0       0       0       0       0       0       0       0       0       0       0       0       0       0       0
      Locals:         0       0       0       0       0       0       0       0       0       0       0       0       0       0       0       0       0
      Temps:          0       0       0       0       0       0       0       0       0       0       0       0       0       0       0       0       0
      Totals:         0       0       0       0       0       0       0       0       0       0       0       0       0       0       0       0       0
Total ram usage:        0 bytes
 Hardware stack levels used:    1
 Hardware stack levels required when called:    3
 This function calls:
		Nothing
 This function is called by:
		_poweroff
 This function uses a non-reentrant model


 *************** function _CloseCapture1 *****************
 Defined at:
		line 21 in file "C:\Program Files (x86)\Microchip\xc8\v1.33\sources\pic18\plib\CCP\cp1close.c"
 Parameters:    Size  Location     Type
		None
 Auto vars:     Size  Location     Type
		None
 Return value:  Size  Location     Type
		None               void
 Registers used:
		None
 Tracked objects:
		On entry : 
		On exit  : 
		Unchanged: 
 Data sizes:     COMRAM   BANK0   BANK1   BANK2   BANK3   BANK4   BANK5   BANK6   BANK7   BANK8   BANK9  BANK10  BANK11  BANK12  BANK13  BANK14  BANK15
      Params:         0       0       0       0       0       0       0       0       0       0       0       0       0       0       0       0       0
      Locals:         0       0       0       0       0       0       0       0       0       0       0       0       0       0       0       0       0
      Temps:          0       0       0       0       0       0       0       0       0       0       0       0       0       0       0       0       0
      Totals:         0       0       0       0       0       0       0       0       0       0       0       0       0       0       0       0       0
Total ram usage:        0 bytes
 Hardware stack levels used:    1
 Hardware stack levels required when called:    3
 This function calls:
		Nothing
 This function is called by:
		_poweroff
 This function uses a non-reentrant model


 *************** function _parse_next *****************
 Defined at:
		line 7121 in file "D:\Users\MichaelZarling\Documents\Lobster\cs020_sw\Master_v1p226p34-XC8\EL04\main\master.c"
 Parameters:    Size  Location     Type
  cp              2   28[BANK0 ] PTR unsigned char 
		 -> lobmain@cursor_chk(17), NULL(0), DiagBuf(32), 
  delim           1   30[BANK0 ] unsigned char 
  ulp             1   31[BANK0 ] PTR unsigned long 
		 -> exec_diag@argary(32), 
 Auto vars:     Size  Location     Type
  np              2   36[BANK0 ] PTR unsigned char 
		 -> lobmain@cursor_chk(17), NULL(0), DiagBuf(32), 
 Return value:  Size  Location     Type
                  2   28[BANK0 ] PTR unsigned char 
 Registers used:
		wreg, fsr0l, fsr0h, fsr2l, fsr2h, status,2, status,0, tblptrl, tblptrh, tblptru, cstack
 Tracked objects:
		On entry : 
		On exit  : 
		Unchanged: 
 Data sizes:     COMRAM   BANK0   BANK1   BANK2   BANK3   BANK4   BANK5   BANK6   BANK7   BANK8   BANK9  BANK10  BANK11  BANK12  BANK13  BANK14  BANK15
      Params:         0       4       0       0       0       0       0       0       0       0       0       0       0       0       0       0       0
      Locals:         0       2       0       0       0       0       0       0       0       0       0       0       0       0       0       0       0
      Temps:          0       4       0       0       0       0       0       0       0       0       0       0       0       0       0       0       0
      Totals:         0      10       0       0       0       0       0       0       0       0       0       0       0       0       0       0       0
Total ram usage:       10 bytes
 Hardware stack levels used:    1
 Hardware stack levels required when called:    5
 This function calls:
		_atoh
		_strchr
 This function is called by:
		_exec_diag
 This function uses a non-reentrant model


 *************** function _strchr *****************
 Defined at:
		line 4 in file "C:\Program Files (x86)\Microchip\xc8\v1.33\sources\common\strchr.c"
 Parameters:    Size  Location     Type
  ptr             2    0[BANK0 ] PTR const unsigned char 
		 -> lobmain@cursor_chk(17), NULL(0), DiagBuf(32), 
  chr             2    2[BANK0 ] int 
 Auto vars:     Size  Location     Type
		None
 Return value:  Size  Location     Type
                  2    0[BANK0 ] PTR unsigned char 
 Registers used:
		wreg, fsr2l, fsr2h, status,2, status,0
 Tracked objects:
		On entry : 
		On exit  : 
		Unchanged: 
 Data sizes:     COMRAM   BANK0   BANK1   BANK2   BANK3   BANK4   BANK5   BANK6   BANK7   BANK8   BANK9  BANK10  BANK11  BANK12  BANK13  BANK14  BANK15
      Params:         0       4       0       0       0       0       0       0       0       0       0       0       0       0       0       0       0
      Locals:         0       0       0       0       0       0       0       0       0       0       0       0       0       0       0       0       0
      Temps:          0       0       0       0       0       0       0       0       0       0       0       0       0       0       0       0       0
      Totals:         0       4       0       0       0       0       0       0       0       0       0       0       0       0       0       0       0
Total ram usage:        4 bytes
 Hardware stack levels used:    1
 Hardware stack levels required when called:    3
 This function calls:
		Nothing
 This function is called by:
		_parse_next
		_lobmain
 This function uses a non-reentrant model


 *************** function _atoh *****************
 Defined at:
		line 159 in file "D:\Users\MichaelZarling\Documents\Lobster\cs020_sw\Master_v1p226p34-XC8\EL04\main\diag.c"
 Parameters:    Size  Location     Type
  cptr            2    4[BANK0 ] PTR unsigned char 
		 -> lobmain@cursor_chk(17), NULL(0), DiagBuf(32), 
 Auto vars:     Size  Location     Type
  rc              4   24[BANK0 ] unsigned long 
  j               2   21[BANK0 ] int 
  i               2   16[BANK0 ] int 
  c               1   23[BANK0 ] unsigned char 
  sign            1   20[BANK0 ] unsigned char 
 Return value:  Size  Location     Type
                  4    4[BANK0 ] unsigned long 
 Registers used:
		wreg, fsr0l, fsr0h, fsr2l, fsr2h, status,2, status,0, tblptrl, tblptrh, tblptru, cstack
 Tracked objects:
		On entry : 
		On exit  : 
		Unchanged: 
 Data sizes:     COMRAM   BANK0   BANK1   BANK2   BANK3   BANK4   BANK5   BANK6   BANK7   BANK8   BANK9  BANK10  BANK11  BANK12  BANK13  BANK14  BANK15
      Params:         0       4       0       0       0       0       0       0       0       0       0       0       0       0       0       0       0
      Locals:         0      12       0       0       0       0       0       0       0       0       0       0       0       0       0       0       0
      Temps:          0       8       0       0       0       0       0       0       0       0       0       0       0       0       0       0       0
      Totals:         0      24       0       0       0       0       0       0       0       0       0       0       0       0       0       0       0
Total ram usage:       24 bytes
 Hardware stack levels used:    1
 Hardware stack levels required when called:    4
 This function calls:
		_strlen
 This function is called by:
		_parse_next
 This function uses a non-reentrant model


 *************** function _strlen *****************
 Defined at:
		line 4 in file "C:\Program Files (x86)\Microchip\xc8\v1.33\sources\common\strlen.c"
 Parameters:    Size  Location     Type
  s               2    0[BANK0 ] PTR const unsigned char 
		 -> STR_437(7), STR_436(7), STR_435(7), STR_434(7), 
		 -> STR_433(14), STR_432(14), STR_431(14), STR_430(14), 
		 -> STR_429(14), STR_428(14), STR_427(14), STR_426(7), 
		 -> STR_425(7), STR_424(7), STR_423(4), STR_422(6), 
		 -> STR_421(7), STR_420(5), STR_419(7), STR_418(1), 
		 -> STR_417(1), STR_416(7), STR_415(1), STR_414(7), 
		 -> STR_413(7), STR_412(7), STR_411(7), STR_410(7), 
		 -> STR_409(14), STR_408(14), STR_407(14), STR_406(14), 
		 -> STR_405(14), STR_404(14), STR_403(14), STR_402(7), 
		 -> STR_401(7), STR_400(7), STR_399(6), STR_398(6), 
		 -> STR_397(7), STR_396(6), STR_395(7), STR_394(7), 
		 -> STR_393(7), STR_392(7), STR_391(7), STR_390(7), 
		 -> lobmain@BatValASCII(4), lobmain@cursor_chk(17), RemoteString(68), NULL(0), 
		 -> DiagBuf(32), 
 Auto vars:     Size  Location     Type
  cp              2    2[BANK0 ] PTR const unsigned char 
		 -> STR_437(7), STR_436(7), STR_435(7), STR_434(7), 
		 -> STR_433(14), STR_432(14), STR_431(14), STR_430(14), 
		 -> STR_429(14), STR_428(14), STR_427(14), STR_426(7), 
		 -> STR_425(7), STR_424(7), STR_423(4), STR_422(6), 
		 -> STR_421(7), STR_420(5), STR_419(7), STR_418(1), 
		 -> STR_417(1), STR_416(7), STR_415(1), STR_414(7), 
		 -> STR_413(7), STR_412(7), STR_411(7), STR_410(7), 
		 -> STR_409(14), STR_408(14), STR_407(14), STR_406(14), 
		 -> STR_405(14), STR_404(14), STR_403(14), STR_402(7), 
		 -> STR_401(7), STR_400(7), STR_399(6), STR_398(6), 
		 -> STR_397(7), STR_396(6), STR_395(7), STR_394(7), 
		 -> STR_393(7), STR_392(7), STR_391(7), STR_390(7), 
		 -> lobmain@BatValASCII(4), lobmain@cursor_chk(17), RemoteString(68), NULL(0), 
		 -> DiagBuf(32), 
 Return value:  Size  Location     Type
                  2    0[BANK0 ] unsigned int 
 Registers used:
		wreg, fsr0l, fsr0h, status,2, status,0, tblptrl, tblptrh, tblptru
 Tracked objects:
		On entry : 
		On exit  : 
		Unchanged: 
 Data sizes:     COMRAM   BANK0   BANK1   BANK2   BANK3   BANK4   BANK5   BANK6   BANK7   BANK8   BANK9  BANK10  BANK11  BANK12  BANK13  BANK14  BANK15
      Params:         0       2       0       0       0       0       0       0       0       0       0       0       0       0       0       0       0
      Locals:         0       2       0       0       0       0       0       0       0       0       0       0       0       0       0       0       0
      Temps:          0       0       0       0       0       0       0       0       0       0       0       0       0       0       0       0       0
      Totals:         0       4       0       0       0       0       0       0       0       0       0       0       0       0       0       0       0
Total ram usage:        4 bytes
 Hardware stack levels used:    1
 Hardware stack levels required when called:    3
 This function calls:
		Nothing
 This function is called by:
		_main
		_exec_diag
		_lobmain
		_chartoa
		_atoh
 This function uses a non-reentrant model


 *************** function _SetFeedPwm *****************
 Defined at:
		line 2396 in file "D:\Users\MichaelZarling\Documents\Lobster\cs020_sw\Master_v1p226p34-XC8\EL04\main\master.c"
 Parameters:    Size  Location     Type
		None
 Auto vars:     Size  Location     Type
  delta           2    0        unsigned int 
 Return value:  Size  Location     Type
		None               void
 Registers used:
		wreg, status,2, status,0, cstack
 Tracked objects:
		On entry : 
		On exit  : 
		Unchanged: 
 Data sizes:     COMRAM   BANK0   BANK1   BANK2   BANK3   BANK4   BANK5   BANK6   BANK7   BANK8   BANK9  BANK10  BANK11  BANK12  BANK13  BANK14  BANK15
      Params:         0       0       0       0       0       0       0       0       0       0       0       0       0       0       0       0       0
      Locals:         0       0       0       0       0       0       0       0       0       0       0       0       0       0       0       0       0
      Temps:          0       4       0       0       0       0       0       0       0       0       0       0       0       0       0       0       0
      Totals:         0       4       0       0       0       0       0       0       0       0       0       0       0       0       0       0       0
Total ram usage:        4 bytes
 Hardware stack levels used:    1
 Hardware stack levels required when called:    4
 This function calls:
		_SetDCPWM3
 This function is called by:
		_feed_diag
 This function uses a non-reentrant model


 *************** function _SetFeedImm *****************
 Defined at:
		line 8174 in file "D:\Users\MichaelZarling\Documents\Lobster\cs020_sw\Master_v1p226p34-XC8\EL04\main\master.c"
 Parameters:    Size  Location     Type
  feedpwm         4    3[BANK0 ] long 
 Auto vars:     Size  Location     Type
		None
 Return value:  Size  Location     Type
		None               void
 Registers used:
		wreg, status,2, status,0, cstack
 Tracked objects:
		On entry : 
		On exit  : 
		Unchanged: 
 Data sizes:     COMRAM   BANK0   BANK1   BANK2   BANK3   BANK4   BANK5   BANK6   BANK7   BANK8   BANK9  BANK10  BANK11  BANK12  BANK13  BANK14  BANK15
      Params:         0       4       0       0       0       0       0       0       0       0       0       0       0       0       0       0       0
      Locals:         0       0       0       0       0       0       0       0       0       0       0       0       0       0       0       0       0
      Temps:          0       4       0       0       0       0       0       0       0       0       0       0       0       0       0       0       0
      Totals:         0       8       0       0       0       0       0       0       0       0       0       0       0       0       0       0       0
Total ram usage:        8 bytes
 Hardware stack levels used:    1
 Hardware stack levels required when called:    4
 This function calls:
		_putrsDIAG
 This function is called by:
		_feed_diag
 This function uses a non-reentrant model


 *************** function _FeedMtrDone *****************
 Defined at:
		line 7795 in file "D:\Users\MichaelZarling\Documents\Lobster\cs020_sw\Master_v1p226p34-XC8\EL04\main\master.c"
 Parameters:    Size  Location     Type
		None
 Auto vars:     Size  Location     Type
		None
 Return value:  Size  Location     Type
		None               void
 Registers used:
		wreg, status,2, status,0, cstack
 Tracked objects:
		On entry : 
		On exit  : 
		Unchanged: 
 Data sizes:     COMRAM   BANK0   BANK1   BANK2   BANK3   BANK4   BANK5   BANK6   BANK7   BANK8   BANK9  BANK10  BANK11  BANK12  BANK13  BANK14  BANK15
      Params:         0       0       0       0       0       0       0       0       0       0       0       0       0       0       0       0       0
      Locals:         0       0       0       0       0       0       0       0       0       0       0       0       0       0       0       0       0
      Temps:          0       4       0       0       0       0       0       0       0       0       0       0       0       0       0       0       0
      Totals:         0       4       0       0       0       0       0       0       0       0       0       0       0       0       0       0       0
Total ram usage:        4 bytes
 Hardware stack levels used:    1
 Hardware stack levels required when called:    4
 This function calls:
		_SetDCPWM3
 This function is called by:
		_main
		_feed_diag
 This function uses a non-reentrant model


 *************** function _SEERead *****************
 Defined at:
		line 7452 in file "D:\Users\MichaelZarling\Documents\Lobster\cs020_sw\Master_v1p226p34-XC8\EL04\main\master.c"
 Parameters:    Size  Location     Type
  addr            2    4[BANK0 ] unsigned int 
 Auto vars:     Size  Location     Type
  data            1    9[BANK0 ] unsigned char 
 Return value:  Size  Location     Type
                  1    wreg      unsigned char 
 Registers used:
		wreg, status,2, status,0, cstack
 Tracked objects:
		On entry : 
		On exit  : 
		Unchanged: 
 Data sizes:     COMRAM   BANK0   BANK1   BANK2   BANK3   BANK4   BANK5   BANK6   BANK7   BANK8   BANK9  BANK10  BANK11  BANK12  BANK13  BANK14  BANK15
      Params:         0       2       0       0       0       0       0       0       0       0       0       0       0       0       0       0       0
      Locals:         0       1       0       0       0       0       0       0       0       0       0       0       0       0       0       0       0
      Temps:          0       3       0       0       0       0       0       0       0       0       0       0       0       0       0       0       0
      Totals:         0       6       0       0       0       0       0       0       0       0       0       0       0       0       0       0       0
Total ram usage:        6 bytes
 Hardware stack levels used:    1
 Hardware stack levels required when called:    4
 This function calls:
		_ChipDeSelect
		_ChipReserve
		_ReadSPI1
		_WriteSPI1
 This function is called by:
		_main
		_ee_test
		_load_prog
 This function uses a non-reentrant model


 *************** function _rbuf_ins *****************
 Defined at:
		line 54 in file "D:\Users\MichaelZarling\Documents\Lobster\cs020_sw\Master_v1p226p34-XC8\EL04\main\ringbuf.c"
 Parameters:    Size  Location     Type
  rbptr           2    0[BANK0 ] PTR volatile struct rbuf
		 -> di_outbuf(104), 
  c               1    2[BANK0 ] unsigned char 
 Auto vars:     Size  Location     Type
		None
 Return value:  Size  Location     Type
		None               void
 Registers used:
		wreg, fsr2l, fsr2h, status,2, status,0, prodl
 Tracked objects:
		On entry : 
		On exit  : 
		Unchanged: 
 Data sizes:     COMRAM   BANK0   BANK1   BANK2   BANK3   BANK4   BANK5   BANK6   BANK7   BANK8   BANK9  BANK10  BANK11  BANK12  BANK13  BANK14  BANK15
      Params:         0       3       0       0       0       0       0       0       0       0       0       0       0       0       0       0       0
      Locals:         0       0       0       0       0       0       0       0       0       0       0       0       0       0       0       0       0
      Temps:          0       2       0       0       0       0       0       0       0       0       0       0       0       0       0       0       0
      Totals:         0       5       0       0       0       0       0       0       0       0       0       0       0       0       0       0       0
Total ram usage:        5 bytes
 Hardware stack levels used:    1
 Hardware stack levels required when called:    3
 This function calls:
		Nothing
 This function is called by:
		_dumpmem
 This function uses a non-reentrant model


 *************** function _UpdBotPer *****************
 Defined at:
		line 1332 in file "D:\Users\MichaelZarling\Documents\Lobster\cs020_sw\Master_v1p226p34-XC8\EL04\main\master.c"
 Parameters:    Size  Location     Type
		None
 Auto vars:     Size  Location     Type
		None
 Return value:  Size  Location     Type
		None               void
 Registers used:
		wreg, status,2, status,0
 Tracked objects:
		On entry : 
		On exit  : 
		Unchanged: 
 Data sizes:     COMRAM   BANK0   BANK1   BANK2   BANK3   BANK4   BANK5   BANK6   BANK7   BANK8   BANK9  BANK10  BANK11  BANK12  BANK13  BANK14  BANK15
      Params:         0       0       0       0       0       0       0       0       0       0       0       0       0       0       0       0       0
      Locals:         0       0       0       0       0       0       0       0       0       0       0       0       0       0       0       0       0
      Temps:          0       0       0       0       0       0       0       0       0       0       0       0       0       0       0       0       0
      Totals:         0       0       0       0       0       0       0       0       0       0       0       0       0       0       0       0       0
Total ram usage:        0 bytes
 Hardware stack levels used:    1
 Hardware stack levels required when called:    3
 This function calls:
		Nothing
 This function is called by:
		_main
		_bot_diag
 This function uses a non-reentrant model


 *************** function _dumpshort *****************
 Defined at:
		line 133 in file "D:\Users\MichaelZarling\Documents\Lobster\cs020_sw\Master_v1p226p34-XC8\EL04\main\diag.c"
 Parameters:    Size  Location     Type
  addr            4    0[BANK0 ] unsigned long 
 Auto vars:     Size  Location     Type
		None
 Return value:  Size  Location     Type
		None               void
 Registers used:
		None
 Tracked objects:
		On entry : 
		On exit  : 
		Unchanged: 
 Data sizes:     COMRAM   BANK0   BANK1   BANK2   BANK3   BANK4   BANK5   BANK6   BANK7   BANK8   BANK9  BANK10  BANK11  BANK12  BANK13  BANK14  BANK15
      Params:         0       4       0       0       0       0       0       0       0       0       0       0       0       0       0       0       0
      Locals:         0       0       0       0       0       0       0       0       0       0       0       0       0       0       0       0       0
      Temps:          0       0       0       0       0       0       0       0       0       0       0       0       0       0       0       0       0
      Totals:         0       4       0       0       0       0       0       0       0       0       0       0       0       0       0       0       0
Total ram usage:        4 bytes
 Hardware stack levels used:    1
 Hardware stack levels required when called:    3
 This function calls:
		Nothing
 This function is called by:
		_main
		_a2d_diag
		_lob_manual
		_lob_play
 This function uses a non-reentrant model


 *************** function _dumpaddr *****************
 Defined at:
		line 84 in file "D:\Users\MichaelZarling\Documents\Lobster\cs020_sw\Master_v1p226p34-XC8\EL04\main\diag.c"
 Parameters:    Size  Location     Type
  addr            2    0[BANK0 ] unsigned int 
 Auto vars:     Size  Location     Type
		None
 Return value:  Size  Location     Type
		None               void
 Registers used:
		None
 Tracked objects:
		On entry : 
		On exit  : 
		Unchanged: 
 Data sizes:     COMRAM   BANK0   BANK1   BANK2   BANK3   BANK4   BANK5   BANK6   BANK7   BANK8   BANK9  BANK10  BANK11  BANK12  BANK13  BANK14  BANK15
      Params:         0       2       0       0       0       0       0       0       0       0       0       0       0       0       0       0       0
      Locals:         0       0       0       0       0       0       0       0       0       0       0       0       0       0       0       0       0
      Temps:          0       0       0       0       0       0       0       0       0       0       0       0       0       0       0       0       0
      Totals:         0       2       0       0       0       0       0       0       0       0       0       0       0       0       0       0       0
Total ram usage:        2 bytes
 Hardware stack levels used:    1
 Hardware stack levels required when called:    3
 This function calls:
		Nothing
 This function is called by:
		_main
		_dumpmem
		_a2d_diag
		_top_diag
		_bot_diag
		_pwm_debug
 This function uses a non-reentrant model


 *************** function _PgaGain *****************
 Defined at:
		line 7746 in file "D:\Users\MichaelZarling\Documents\Lobster\cs020_sw\Master_v1p226p34-XC8\EL04\main\master.c"
 Parameters:    Size  Location     Type
  chan            2    4[BANK0 ] int 
  gain            1    6[BANK0 ] unsigned char 
 Auto vars:     Size  Location     Type
		None
 Return value:  Size  Location     Type
		None               void
 Registers used:
		wreg, status,2, status,0, cstack
 Tracked objects:
		On entry : 
		On exit  : 
		Unchanged: 
 Data sizes:     COMRAM   BANK0   BANK1   BANK2   BANK3   BANK4   BANK5   BANK6   BANK7   BANK8   BANK9  BANK10  BANK11  BANK12  BANK13  BANK14  BANK15
      Params:         0       3       0       0       0       0       0       0       0       0       0       0       0       0       0       0       0
      Locals:         0       0       0       0       0       0       0       0       0       0       0       0       0       0       0       0       0
      Temps:          0       0       0       0       0       0       0       0       0       0       0       0       0       0       0       0       0
      Totals:         0       3       0       0       0       0       0       0       0       0       0       0       0       0       0       0       0
Total ram usage:        3 bytes
 Hardware stack levels used:    1
 Hardware stack levels required when called:    4
 This function calls:
		_ChipDeSelect
		_ChipSelect
		_WriteSPI1
 This function is called by:
		_a2d_diag
 This function uses a non-reentrant model


 *************** function _debounced_remote_USART2 *****************
 Defined at:
		line 7005 in file "D:\Users\MichaelZarling\Documents\Lobster\cs020_sw\Master_v1p226p34-XC8\EL04\main\master.c"
 Parameters:    Size  Location     Type
		None
 Auto vars:     Size  Location     Type
  rc              1    3[BANK0 ] unsigned char 
 Return value:  Size  Location     Type
                  1    wreg      unsigned char 
 Registers used:
		wreg, status,2, status,0, cstack
 Tracked objects:
		On entry : 
		On exit  : 
		Unchanged: 
 Data sizes:     COMRAM   BANK0   BANK1   BANK2   BANK3   BANK4   BANK5   BANK6   BANK7   BANK8   BANK9  BANK10  BANK11  BANK12  BANK13  BANK14  BANK15
      Params:         0       0       0       0       0       0       0       0       0       0       0       0       0       0       0       0       0
      Locals:         0       1       0       0       0       0       0       0       0       0       0       0       0       0       0       0       0
      Temps:          0       0       0       0       0       0       0       0       0       0       0       0       0       0       0       0       0
      Totals:         0       1       0       0       0       0       0       0       0       0       0       0       0       0       0       0       0
Total ram usage:        1 bytes
 Hardware stack levels used:    1
 Hardware stack levels required when called:    4
 This function calls:
		_Read2USART
		_putrsDIAG
 This function is called by:
		_main
 This function uses a non-reentrant model


 *************** function _Read2USART *****************
 Defined at:
		line 17 in file "C:\Program Files (x86)\Microchip\xc8\v1.33\sources\pic18\plib\USART\u2read.c"
 Parameters:    Size  Location     Type
		None
 Auto vars:     Size  Location     Type
  data            1    0[BANK0 ] unsigned char 
 Return value:  Size  Location     Type
                  1    wreg      unsigned char 
 Registers used:
		wreg, status,2, status,0
 Tracked objects:
		On entry : 
		On exit  : 
		Unchanged: 
 Data sizes:     COMRAM   BANK0   BANK1   BANK2   BANK3   BANK4   BANK5   BANK6   BANK7   BANK8   BANK9  BANK10  BANK11  BANK12  BANK13  BANK14  BANK15
      Params:         0       0       0       0       0       0       0       0       0       0       0       0       0       0       0       0       0
      Locals:         0       1       0       0       0       0       0       0       0       0       0       0       0       0       0       0       0
      Temps:          0       0       0       0       0       0       0       0       0       0       0       0       0       0       0       0       0
      Totals:         0       1       0       0       0       0       0       0       0       0       0       0       0       0       0       0       0
Total ram usage:        1 bytes
 Hardware stack levels used:    1
 Hardware stack levels required when called:    3
 This function calls:
		Nothing
 This function is called by:
		_main
		_debounced_remote_USART2
 This function uses a non-reentrant model


 *************** function _debounced_remote *****************
 Defined at:
		line 6985 in file "D:\Users\MichaelZarling\Documents\Lobster\cs020_sw\Master_v1p226p34-XC8\EL04\main\master.c"
 Parameters:    Size  Location     Type
		None
 Auto vars:     Size  Location     Type
  rc              1   11[BANK0 ] unsigned char 
 Return value:  Size  Location     Type
                  1    wreg      unsigned char 
 Registers used:
		wreg, status,2, status,0, cstack
 Tracked objects:
		On entry : 
		On exit  : 
		Unchanged: 
 Data sizes:     COMRAM   BANK0   BANK1   BANK2   BANK3   BANK4   BANK5   BANK6   BANK7   BANK8   BANK9  BANK10  BANK11  BANK12  BANK13  BANK14  BANK15
      Params:         0       0       0       0       0       0       0       0       0       0       0       0       0       0       0       0       0
      Locals:         0       1       0       0       0       0       0       0       0       0       0       0       0       0       0       0       0
      Temps:          0       8       0       0       0       0       0       0       0       0       0       0       0       0       0       0       0
      Totals:         0       9       0       0       0       0       0       0       0       0       0       0       0       0       0       0       0
Total ram usage:        9 bytes
 Hardware stack levels used:    1
 Hardware stack levels required when called:    4
 This function calls:
		_Read1USART
		_putrsDIAG
 This function is called by:
		_main
 This function uses a non-reentrant model


 *************** function _Read1USART *****************
 Defined at:
		line 17 in file "C:\Program Files (x86)\Microchip\xc8\v1.33\sources\pic18\plib\USART\u1read.c"
 Parameters:    Size  Location     Type
		None
 Auto vars:     Size  Location     Type
  data            1    0[BANK0 ] unsigned char 
 Return value:  Size  Location     Type
                  1    wreg      unsigned char 
 Registers used:
		wreg, status,2
 Tracked objects:
		On entry : 
		On exit  : 
		Unchanged: 
 Data sizes:     COMRAM   BANK0   BANK1   BANK2   BANK3   BANK4   BANK5   BANK6   BANK7   BANK8   BANK9  BANK10  BANK11  BANK12  BANK13  BANK14  BANK15
      Params:         0       0       0       0       0       0       0       0       0       0       0       0       0       0       0       0       0
      Locals:         0       1       0       0       0       0       0       0       0       0       0       0       0       0       0       0       0
      Temps:          0       0       0       0       0       0       0       0       0       0       0       0       0       0       0       0       0
      Totals:         0       1       0       0       0       0       0       0       0       0       0       0       0       0       0       0       0
Total ram usage:        1 bytes
 Hardware stack levels used:    1
 Hardware stack levels required when called:    3
 This function calls:
		Nothing
 This function is called by:
		_debounced_remote
 This function uses a non-reentrant model


 *************** function _debounce_power_button *****************
 Defined at:
		line 3372 in file "D:\Users\MichaelZarling\Documents\Lobster\cs020_sw\Master_v1p226p34-XC8\EL04\main\master.c"
 Parameters:    Size  Location     Type
		None
 Auto vars:     Size  Location     Type
		None
 Return value:  Size  Location     Type
		None               void
 Registers used:
		wreg, fsr2l, fsr2h, status,2, status,0
 Tracked objects:
		On entry : 
		On exit  : 
		Unchanged: 
 Data sizes:     COMRAM   BANK0   BANK1   BANK2   BANK3   BANK4   BANK5   BANK6   BANK7   BANK8   BANK9  BANK10  BANK11  BANK12  BANK13  BANK14  BANK15
      Params:         0       0       0       0       0       0       0       0       0       0       0       0       0       0       0       0       0
      Locals:         0       0       0       0       0       0       0       0       0       0       0       0       0       0       0       0       0
      Temps:          0       0       0       0       0       0       0       0       0       0       0       0       0       0       0       0       0
      Totals:         0       0       0       0       0       0       0       0       0       0       0       0       0       0       0       0       0
Total ram usage:        0 bytes
 Hardware stack levels used:    1
 Hardware stack levels required when called:    3
 This function calls:
		Nothing
 This function is called by:
		_main
 This function uses a non-reentrant model


 *************** function _check_keypad *****************
 Defined at:
		line 24 in file "D:\Users\MichaelZarling\Documents\Lobster\cs020_sw\Master_v1p226p34-XC8\EL04\main\keypad.c"
 Parameters:    Size  Location     Type
		None
 Auto vars:     Size  Location     Type
  rc              1    4[BANK0 ] unsigned char 
  j               1    3[BANK0 ] unsigned char 
  col             1    2[BANK0 ] unsigned char 
  i               1    1[BANK0 ] unsigned char 
  loop            1    0        unsigned char 
 Return value:  Size  Location     Type
                  1    wreg      unsigned char 
 Registers used:
		wreg, status,2, status,0, tblptrl, tblptrh, tblptru, prodl, prodh, cstack
 Tracked objects:
		On entry : 
		On exit  : 
		Unchanged: 
 Data sizes:     COMRAM   BANK0   BANK1   BANK2   BANK3   BANK4   BANK5   BANK6   BANK7   BANK8   BANK9  BANK10  BANK11  BANK12  BANK13  BANK14  BANK15
      Params:         0       0       0       0       0       0       0       0       0       0       0       0       0       0       0       0       0
      Locals:         0       4       0       0       0       0       0       0       0       0       0       0       0       0       0       0       0
      Temps:          0       1       0       0       0       0       0       0       0       0       0       0       0       0       0       0       0
      Totals:         0       5       0       0       0       0       0       0       0       0       0       0       0       0       0       0       0
Total ram usage:        5 bytes
 Hardware stack levels used:    1
 Hardware stack levels required when called:    4
 This function calls:
		_dumphex
 This function is called by:
		_main
 This function uses a non-reentrant model


 *************** function _dumphex *****************
 Defined at:
		line 55 in file "D:\Users\MichaelZarling\Documents\Lobster\cs020_sw\Master_v1p226p34-XC8\EL04\main\diag.c"
 Parameters:    Size  Location     Type
  c               1    wreg     unsigned char 
 Auto vars:     Size  Location     Type
  c               1    0[COMRAM] unsigned char 
 Return value:  Size  Location     Type
		None               void
 Registers used:
		wreg
 Tracked objects:
		On entry : 
		On exit  : 
		Unchanged: 
 Data sizes:     COMRAM   BANK0   BANK1   BANK2   BANK3   BANK4   BANK5   BANK6   BANK7   BANK8   BANK9  BANK10  BANK11  BANK12  BANK13  BANK14  BANK15
      Params:         0       0       0       0       0       0       0       0       0       0       0       0       0       0       0       0       0
      Locals:         0       0       0       0       0       0       0       0       0       0       0       0       0       0       0       0       0
      Temps:          0       0       0       0       0       0       0       0       0       0       0       0       0       0       0       0       0
      Totals:         0       0       0       0       0       0       0       0       0       0       0       0       0       0       0       0       0
Total ram usage:        0 bytes
 Hardware stack levels used:    1
 Hardware stack levels required when called:    3
 This function calls:
		Nothing
 This function is called by:
		_main
		_dumpmem
		_spitest
		_a2d_diag
		_ee_test
		_MtrResponse
		_kbdiag
		_check_keypad
		_lob_manual
		_check_limits
		_lob_play
		_show_prog1
		_show_prog3
		_lob_program
		_lob_parm
		_lob_preset
 This function uses a non-reentrant model


 *************** function ___lldiv *****************
 Defined at:
		line 8 in file "C:\Program Files (x86)\Microchip\xc8\v1.33\sources\common\lldiv.c"
 Parameters:    Size  Location     Type
  dividend        4    0[BANK0 ] unsigned long 
  divisor         4    4[BANK0 ] unsigned long 
 Auto vars:     Size  Location     Type
  quotient        4    9[BANK0 ] unsigned long 
  counter         1    8[BANK0 ] unsigned char 
 Return value:  Size  Location     Type
                  4    0[BANK0 ] unsigned long 
 Registers used:
		wreg, status,2, status,0
 Tracked objects:
		On entry : 
		On exit  : 
		Unchanged: 
 Data sizes:     COMRAM   BANK0   BANK1   BANK2   BANK3   BANK4   BANK5   BANK6   BANK7   BANK8   BANK9  BANK10  BANK11  BANK12  BANK13  BANK14  BANK15
      Params:         0       8       0       0       0       0       0       0       0       0       0       0       0       0       0       0       0
      Locals:         0       5       0       0       0       0       0       0       0       0       0       0       0       0       0       0       0
      Temps:          0       0       0       0       0       0       0       0       0       0       0       0       0       0       0       0       0
      Totals:         0      13       0       0       0       0       0       0       0       0       0       0       0       0       0       0       0
Total ram usage:       13 bytes
 Hardware stack levels used:    1
 Hardware stack levels required when called:    3
 This function calls:
		Nothing
 This function is called by:
		_main
 This function uses a non-reentrant model


 *************** function _SvcShots *****************
 Defined at:
		line 2419 in file "D:\Users\MichaelZarling\Documents\Lobster\cs020_sw\Master_v1p226p34-XC8\EL04\main\master.c"
 Parameters:    Size  Location     Type
		None
 Auto vars:     Size  Location     Type
  curx            2   63[BANK0 ] short 
  lastx           2   61[BANK0 ] short 
  arg             4   69[BANK0 ] long 
  delta           4   65[BANK0 ] long 
 Return value:  Size  Location     Type
		None               void
 Registers used:
		wreg, fsr1l, fsr1h, fsr2l, fsr2h, status,2, status,0, tblptrl, tblptrh, tblptru, prodl, prodh, cstack
 Tracked objects:
		On entry : 
		On exit  : 
		Unchanged: 
 Data sizes:     COMRAM   BANK0   BANK1   BANK2   BANK3   BANK4   BANK5   BANK6   BANK7   BANK8   BANK9  BANK10  BANK11  BANK12  BANK13  BANK14  BANK15
      Params:         0       0       0       0       0       0       0       0       0       0       0       0       0       0       0       0       0
      Locals:         0      12       0       0       0       0       0       0       0       0       0       0       0       0       0       0       0
      Temps:          0       4       0       0       0       0       0       0       0       0       0       0       0       0       0       0       0
      Totals:         0      16       0       0       0       0       0       0       0       0       0       0       0       0       0       0       0
Total ram usage:       16 bytes
 Hardware stack levels used:    1
 Hardware stack levels required when called:    9
 This function calls:
		_BuildCmd
		_FeedPwm2Sec
		_GetMtrResponse
		_SetFeedRate
		_SlvTimeOut
		_StartBot
		_StartElevRandom
		_StartFeed
		_StartFeedAtSpd
		_StartFeedCont
		_StartSweepRandom
		_StartTop
		_StopBotMtr
		_StopFeedMtr
		_StopTopMtr
		___aldiv
		_dumplong
		_putrsDIAG
 This function is called by:
		_main
 This function uses a non-reentrant model


 *************** function ___aldiv *****************
 Defined at:
		line 8 in file "C:\Program Files (x86)\Microchip\xc8\v1.33\sources\common\aldiv.c"
 Parameters:    Size  Location     Type
  dividend        4    0[BANK0 ] long 
  divisor         4    4[BANK0 ] long 
 Auto vars:     Size  Location     Type
  quotient        4   10[BANK0 ] long 
  sign            1    9[BANK0 ] unsigned char 
  counter         1    8[BANK0 ] unsigned char 
 Return value:  Size  Location     Type
                  4    0[BANK0 ] long 
 Registers used:
		wreg, status,2, status,0
 Tracked objects:
		On entry : 
		On exit  : 
		Unchanged: 
 Data sizes:     COMRAM   BANK0   BANK1   BANK2   BANK3   BANK4   BANK5   BANK6   BANK7   BANK8   BANK9  BANK10  BANK11  BANK12  BANK13  BANK14  BANK15
      Params:         0       8       0       0       0       0       0       0       0       0       0       0       0       0       0       0       0
      Locals:         0       6       0       0       0       0       0       0       0       0       0       0       0       0       0       0       0
      Temps:          0       0       0       0       0       0       0       0       0       0       0       0       0       0       0       0       0
      Totals:         0      14       0       0       0       0       0       0       0       0       0       0       0       0       0       0       0
Total ram usage:       14 bytes
 Hardware stack levels used:    1
 Hardware stack levels required when called:    3
 This function calls:
		Nothing
 This function is called by:
		_SvcShots
 This function uses a non-reentrant model


 *************** function _StartTop *****************
 Defined at:
		line 8258 in file "D:\Users\MichaelZarling\Documents\Lobster\cs020_sw\Master_v1p226p34-XC8\EL04\main\master.c"
 Parameters:    Size  Location     Type
  val             2   26[BANK0 ] unsigned int 
 Auto vars:     Size  Location     Type
  ix              2   52[BANK0 ] int 
  delta           2   50[BANK0 ] unsigned int 
 Return value:  Size  Location     Type
		None               void
 Registers used:
		wreg, fsr2l, fsr2h, status,2, status,0, tblptrl, tblptrh, tblptru, prodl, prodh, cstack
 Tracked objects:
		On entry : 
		On exit  : 
		Unchanged: 
 Data sizes:     COMRAM   BANK0   BANK1   BANK2   BANK3   BANK4   BANK5   BANK6   BANK7   BANK8   BANK9  BANK10  BANK11  BANK12  BANK13  BANK14  BANK15
      Params:         0       2       0       0       0       0       0       0       0       0       0       0       0       0       0       0       0
      Locals:         0      20       0       0       0       0       0       0       0       0       0       0       0       0       0       0       0
      Temps:          0       6       0       0       0       0       0       0       0       0       0       0       0       0       0       0       0
      Totals:         0      28       0       0       0       0       0       0       0       0       0       0       0       0       0       0       0
Total ram usage:       28 bytes
 Hardware stack levels used:    1
 Hardware stack levels required when called:    8
 This function calls:
		_CalcLimits
		_SetTopPwm
		_SlowFeedMtr
		_stop_all
 This function is called by:
		_SvcShots
		_main
		_CurShot_diag
		_top_diag
 This function uses a non-reentrant model


 *************** function _SetTopPwm *****************
 Defined at:
		line 1724 in file "D:\Users\MichaelZarling\Documents\Lobster\cs020_sw\Master_v1p226p34-XC8\EL04\main\master.c"
 Parameters:    Size  Location     Type
		None
 Auto vars:     Size  Location     Type
  delta           2   23[BANK0 ] int 
  i               2   21[BANK0 ] int 
  incr            2   19[BANK0 ] int 
  drift           2   17[BANK0 ] unsigned int 
  drift1          2   15[BANK0 ] unsigned int 
  ix              2    0        unsigned int 
 Return value:  Size  Location     Type
		None               void
 Registers used:
		wreg, fsr2l, fsr2h, status,2, status,0, tblptrl, tblptrh, tblptru, prodl, cstack
 Tracked objects:
		On entry : 
		On exit  : 
		Unchanged: 
 Data sizes:     COMRAM   BANK0   BANK1   BANK2   BANK3   BANK4   BANK5   BANK6   BANK7   BANK8   BANK9  BANK10  BANK11  BANK12  BANK13  BANK14  BANK15
      Params:         0       0       0       0       0       0       0       0       0       0       0       0       0       0       0       0       0
      Locals:         0      10       0       0       0       0       0       0       0       0       0       0       0       0       0       0       0
      Temps:          0       9       0       0       0       0       0       0       0       0       0       0       0       0       0       0       0
      Totals:         0      19       0       0       0       0       0       0       0       0       0       0       0       0       0       0       0
Total ram usage:       19 bytes
 Hardware stack levels used:    1
 Hardware stack levels required when called:    4
 This function calls:
		_SetDCPWM4
 This function is called by:
		_StartTop
		_top_diag
 This function uses a non-reentrant model


 *************** function _StartSweepRandom *****************
 Defined at:
		line 7863 in file "D:\Users\MichaelZarling\Documents\Lobster\cs020_sw\Master_v1p226p34-XC8\EL04\main\master.c"
 Parameters:    Size  Location     Type
  speed           2   31[BANK0 ] int 
  limit_r         2   33[BANK0 ] int 
  limit_l         2   35[BANK0 ] int 
 Auto vars:     Size  Location     Type
  arg             8   49[BANK0 ] long [2]
 Return value:  Size  Location     Type
		None               void
 Registers used:
		wreg, fsr2l, fsr2h, status,2, status,0, prodl, prodh, cstack
 Tracked objects:
		On entry : 
		On exit  : 
		Unchanged: 
 Data sizes:     COMRAM   BANK0   BANK1   BANK2   BANK3   BANK4   BANK5   BANK6   BANK7   BANK8   BANK9  BANK10  BANK11  BANK12  BANK13  BANK14  BANK15
      Params:         0       6       0       0       0       0       0       0       0       0       0       0       0       0       0       0       0
      Locals:         0       8       0       0       0       0       0       0       0       0       0       0       0       0       0       0       0
      Temps:          0      12       0       0       0       0       0       0       0       0       0       0       0       0       0       0       0
      Totals:         0      26       0       0       0       0       0       0       0       0       0       0       0       0       0       0       0
Total ram usage:       26 bytes
 Hardware stack levels used:    1
 Hardware stack levels required when called:    6
 This function calls:
		_slavecmd
 This function is called by:
		_SvcShots
 This function uses a non-reentrant model


 *************** function _StartFeedCont *****************
 Defined at:
		line 8189 in file "D:\Users\MichaelZarling\Documents\Lobster\cs020_sw\Master_v1p226p34-XC8\EL04\main\master.c"
 Parameters:    Size  Location     Type
  feedpwm         4    4[BANK0 ] long 
 Auto vars:     Size  Location     Type
		None
 Return value:  Size  Location     Type
		None               void
 Registers used:
		wreg, status,2, status,0, cstack
 Tracked objects:
		On entry : 
		On exit  : 
		Unchanged: 
 Data sizes:     COMRAM   BANK0   BANK1   BANK2   BANK3   BANK4   BANK5   BANK6   BANK7   BANK8   BANK9  BANK10  BANK11  BANK12  BANK13  BANK14  BANK15
      Params:         0       4       0       0       0       0       0       0       0       0       0       0       0       0       0       0       0
      Locals:         0       4       0       0       0       0       0       0       0       0       0       0       0       0       0       0       0
      Temps:          0       5       0       0       0       0       0       0       0       0       0       0       0       0       0       0       0
      Totals:         0      13       0       0       0       0       0       0       0       0       0       0       0       0       0       0       0
Total ram usage:       13 bytes
 Hardware stack levels used:    1
 Hardware stack levels required when called:    4
 This function calls:
		_dumplong
		_putrsDIAG
 This function is called by:
		_SvcShots
		_CurShot_diag
		_lob_play
 This function uses a non-reentrant model


 *************** function _StartFeedAtSpd *****************
 Defined at:
		line 8152 in file "D:\Users\MichaelZarling\Documents\Lobster\cs020_sw\Master_v1p226p34-XC8\EL04\main\master.c"
 Parameters:    Size  Location     Type
		None
 Auto vars:     Size  Location     Type
		None
 Return value:  Size  Location     Type
		None               void
 Registers used:
		wreg, status,2, status,0, cstack
 Tracked objects:
		On entry : 
		On exit  : 
		Unchanged: 
 Data sizes:     COMRAM   BANK0   BANK1   BANK2   BANK3   BANK4   BANK5   BANK6   BANK7   BANK8   BANK9  BANK10  BANK11  BANK12  BANK13  BANK14  BANK15
      Params:         0       0       0       0       0       0       0       0       0       0       0       0       0       0       0       0       0
      Locals:         0       4       0       0       0       0       0       0       0       0       0       0       0       0       0       0       0
      Temps:          0       5       0       0       0       0       0       0       0       0       0       0       0       0       0       0       0
      Totals:         0       9       0       0       0       0       0       0       0       0       0       0       0       0       0       0       0
Total ram usage:        9 bytes
 Hardware stack levels used:    1
 Hardware stack levels required when called:    4
 This function calls:
		_dumplong
		_putrsDIAG
 This function is called by:
		_SvcShots
 This function uses a non-reentrant model


 *************** function _StartFeed *****************
 Defined at:
		line 8121 in file "D:\Users\MichaelZarling\Documents\Lobster\cs020_sw\Master_v1p226p34-XC8\EL04\main\master.c"
 Parameters:    Size  Location     Type
		None
 Auto vars:     Size  Location     Type
  ptr             1   13[BANK0 ] PTR unsigned int 
		 -> feed_stat(2), 
 Return value:  Size  Location     Type
		None               void
 Registers used:
		wreg, fsr2l, fsr2h, status,2, status,0, cstack
 Tracked objects:
		On entry : 
		On exit  : 
		Unchanged: 
 Data sizes:     COMRAM   BANK0   BANK1   BANK2   BANK3   BANK4   BANK5   BANK6   BANK7   BANK8   BANK9  BANK10  BANK11  BANK12  BANK13  BANK14  BANK15
      Params:         0       0       0       0       0       0       0       0       0       0       0       0       0       0       0       0       0
      Locals:         0       5       0       0       0       0       0       0       0       0       0       0       0       0       0       0       0
      Temps:          0       5       0       0       0       0       0       0       0       0       0       0       0       0       0       0       0
      Totals:         0      10       0       0       0       0       0       0       0       0       0       0       0       0       0       0       0
Total ram usage:       10 bytes
 Hardware stack levels used:    1
 Hardware stack levels required when called:    4
 This function calls:
		_dumplong
		_putrsDIAG
 This function is called by:
		_SvcShots
		_CurShot_diag
		_feed_diag
 This function uses a non-reentrant model


 *************** function _dumplong *****************
 Defined at:
		line 105 in file "D:\Users\MichaelZarling\Documents\Lobster\cs020_sw\Master_v1p226p34-XC8\EL04\main\diag.c"
 Parameters:    Size  Location     Type
  addr            4    0[BANK0 ] unsigned long 
 Auto vars:     Size  Location     Type
		None
 Return value:  Size  Location     Type
		None               void
 Registers used:
		None
 Tracked objects:
		On entry : 
		On exit  : 
		Unchanged: 
 Data sizes:     COMRAM   BANK0   BANK1   BANK2   BANK3   BANK4   BANK5   BANK6   BANK7   BANK8   BANK9  BANK10  BANK11  BANK12  BANK13  BANK14  BANK15
      Params:         0       4       0       0       0       0       0       0       0       0       0       0       0       0       0       0       0
      Locals:         0       0       0       0       0       0       0       0       0       0       0       0       0       0       0       0       0
      Temps:          0       0       0       0       0       0       0       0       0       0       0       0       0       0       0       0       0
      Totals:         0       4       0       0       0       0       0       0       0       0       0       0       0       0       0       0       0
Total ram usage:        4 bytes
 Hardware stack levels used:    1
 Hardware stack levels required when called:    3
 This function calls:
		Nothing
 This function is called by:
		_SvcShots
		_main
		_a2d_diag
		_ee_test
		_StartFeed
		_StartFeedAtSpd
		_StartFeedCont
		_top_diag
		_bot_diag
		_pwm_debug
		_lob_play
		_lob_test
 This function uses a non-reentrant model


 *************** function _StartElevRandom *****************
 Defined at:
		line 7871 in file "D:\Users\MichaelZarling\Documents\Lobster\cs020_sw\Master_v1p226p34-XC8\EL04\main\master.c"
 Parameters:    Size  Location     Type
  speed           2   31[BANK0 ] int 
  limit_top       2   33[BANK0 ] int 
  limit_bot       2   35[BANK0 ] int 
 Auto vars:     Size  Location     Type
  arg             8   49[BANK0 ] long [2]
 Return value:  Size  Location     Type
		None               void
 Registers used:
		wreg, fsr2l, fsr2h, status,2, status,0, prodl, prodh, cstack
 Tracked objects:
		On entry : 
		On exit  : 
		Unchanged: 
 Data sizes:     COMRAM   BANK0   BANK1   BANK2   BANK3   BANK4   BANK5   BANK6   BANK7   BANK8   BANK9  BANK10  BANK11  BANK12  BANK13  BANK14  BANK15
      Params:         0       6       0       0       0       0       0       0       0       0       0       0       0       0       0       0       0
      Locals:         0       8       0       0       0       0       0       0       0       0       0       0       0       0       0       0       0
      Temps:          0      12       0       0       0       0       0       0       0       0       0       0       0       0       0       0       0
      Totals:         0      26       0       0       0       0       0       0       0       0       0       0       0       0       0       0       0
Total ram usage:       26 bytes
 Hardware stack levels used:    1
 Hardware stack levels required when called:    6
 This function calls:
		_slavecmd
 This function is called by:
		_SvcShots
 This function uses a non-reentrant model


 *************** function _StartBot *****************
 Defined at:
		line 8412 in file "D:\Users\MichaelZarling\Documents\Lobster\cs020_sw\Master_v1p226p34-XC8\EL04\main\master.c"
 Parameters:    Size  Location     Type
  val             2   26[BANK0 ] unsigned int 
 Auto vars:     Size  Location     Type
  ix              2   52[BANK0 ] int 
  delta           2   50[BANK0 ] unsigned int 
 Return value:  Size  Location     Type
		None               void
 Registers used:
		wreg, fsr2l, fsr2h, status,2, status,0, tblptrl, tblptrh, tblptru, prodl, prodh, cstack
 Tracked objects:
		On entry : 
		On exit  : 
		Unchanged: 
 Data sizes:     COMRAM   BANK0   BANK1   BANK2   BANK3   BANK4   BANK5   BANK6   BANK7   BANK8   BANK9  BANK10  BANK11  BANK12  BANK13  BANK14  BANK15
      Params:         0       2       0       0       0       0       0       0       0       0       0       0       0       0       0       0       0
      Locals:         0      20       0       0       0       0       0       0       0       0       0       0       0       0       0       0       0
      Temps:          0       6       0       0       0       0       0       0       0       0       0       0       0       0       0       0       0
      Totals:         0      28       0       0       0       0       0       0       0       0       0       0       0       0       0       0       0
Total ram usage:       28 bytes
 Hardware stack levels used:    1
 Hardware stack levels required when called:    8
 This function calls:
		_CalcLimits
		_SetBotPwm
		_SlowFeedMtr
		_stop_all
 This function is called by:
		_SvcShots
		_main
		_CurShot_diag
		_bot_diag
 This function uses a non-reentrant model


 *************** function _SlowFeedMtr *****************
 Defined at:
		line 7772 in file "D:\Users\MichaelZarling\Documents\Lobster\cs020_sw\Master_v1p226p34-XC8\EL04\main\master.c"
 Parameters:    Size  Location     Type
  flag            2    6[BANK0 ] int 
 Auto vars:     Size  Location     Type
		None
 Return value:  Size  Location     Type
		None               void
 Registers used:
		wreg, status,2, status,0, cstack
 Tracked objects:
		On entry : 
		On exit  : 
		Unchanged: 
 Data sizes:     COMRAM   BANK0   BANK1   BANK2   BANK3   BANK4   BANK5   BANK6   BANK7   BANK8   BANK9  BANK10  BANK11  BANK12  BANK13  BANK14  BANK15
      Params:         0       2       0       0       0       0       0       0       0       0       0       0       0       0       0       0       0
      Locals:         0       0       0       0       0       0       0       0       0       0       0       0       0       0       0       0       0
      Temps:          0       4       0       0       0       0       0       0       0       0       0       0       0       0       0       0       0
      Totals:         0       6       0       0       0       0       0       0       0       0       0       0       0       0       0       0       0
Total ram usage:        6 bytes
 Hardware stack levels used:    1
 Hardware stack levels required when called:    4
 This function calls:
		_SetDCPWM3
 This function is called by:
		_StartTop
		_StartBot
 This function uses a non-reentrant model


 *************** function _SetBotPwm *****************
 Defined at:
		line 2247 in file "D:\Users\MichaelZarling\Documents\Lobster\cs020_sw\Master_v1p226p34-XC8\EL04\main\master.c"
 Parameters:    Size  Location     Type
		None
 Auto vars:     Size  Location     Type
  delta           2   23[BANK0 ] int 
  i               2   21[BANK0 ] int 
  incr            2   19[BANK0 ] int 
  drift           2   17[BANK0 ] unsigned int 
  drift1          2   15[BANK0 ] unsigned int 
  ix              2    0        unsigned int 
 Return value:  Size  Location     Type
		None               void
 Registers used:
		wreg, fsr2l, fsr2h, status,2, status,0, tblptrl, tblptrh, tblptru, prodl, cstack
 Tracked objects:
		On entry : 
		On exit  : 
		Unchanged: 
 Data sizes:     COMRAM   BANK0   BANK1   BANK2   BANK3   BANK4   BANK5   BANK6   BANK7   BANK8   BANK9  BANK10  BANK11  BANK12  BANK13  BANK14  BANK15
      Params:         0       0       0       0       0       0       0       0       0       0       0       0       0       0       0       0       0
      Locals:         0      10       0       0       0       0       0       0       0       0       0       0       0       0       0       0       0
      Temps:          0       9       0       0       0       0       0       0       0       0       0       0       0       0       0       0       0
      Totals:         0      19       0       0       0       0       0       0       0       0       0       0       0       0       0       0       0
Total ram usage:       19 bytes
 Hardware stack levels used:    1
 Hardware stack levels required when called:    4
 This function calls:
		_SetDCPWM5
 This function is called by:
		_StartBot
		_bot_diag
 This function uses a non-reentrant model


 *************** function _CalcLimits *****************
 Defined at:
		line 8835 in file "D:\Users\MichaelZarling\Documents\Lobster\cs020_sw\Master_v1p226p34-XC8\EL04\main\master.c"
 Parameters:    Size  Location     Type
  count           4    6[BANK0 ] unsigned long 
  SpdLimit        2   10[BANK0 ] PTR unsigned int 
		 -> BotSpdLimit(4), TopSpdLimit(4), 
 Auto vars:     Size  Location     Type
  i               2   16[BANK0 ] int 
 Return value:  Size  Location     Type
		None               void
 Registers used:
		wreg, fsr2l, fsr2h, status,2, status,0, tblptrl, tblptrh, tblptru, prodl, prodh, cstack
 Tracked objects:
		On entry : 
		On exit  : 
		Unchanged: 
 Data sizes:     COMRAM   BANK0   BANK1   BANK2   BANK3   BANK4   BANK5   BANK6   BANK7   BANK8   BANK9  BANK10  BANK11  BANK12  BANK13  BANK14  BANK15
      Params:         0       6       0       0       0       0       0       0       0       0       0       0       0       0       0       0       0
      Locals:         0       2       0       0       0       0       0       0       0       0       0       0       0       0       0       0       0
      Temps:          0       4       0       0       0       0       0       0       0       0       0       0       0       0       0       0       0
      Totals:         0      12       0       0       0       0       0       0       0       0       0       0       0       0       0       0       0
Total ram usage:       12 bytes
 Hardware stack levels used:    1
 Hardware stack levels required when called:    4
 This function calls:
		___wmul
 This function is called by:
		_StartTop
		_StartBot
 This function uses a non-reentrant model


 *************** function _SlvTimeOut *****************
 Defined at:
		line 8697 in file "D:\Users\MichaelZarling\Documents\Lobster\cs020_sw\Master_v1p226p34-XC8\EL04\main\master.c"
 Parameters:    Size  Location     Type
		None
 Auto vars:     Size  Location     Type
		None
 Return value:  Size  Location     Type
		None               void
 Registers used:
		None
 Tracked objects:
		On entry : 
		On exit  : 
		Unchanged: 
 Data sizes:     COMRAM   BANK0   BANK1   BANK2   BANK3   BANK4   BANK5   BANK6   BANK7   BANK8   BANK9  BANK10  BANK11  BANK12  BANK13  BANK14  BANK15
      Params:         0       0       0       0       0       0       0       0       0       0       0       0       0       0       0       0       0
      Locals:         0       0       0       0       0       0       0       0       0       0       0       0       0       0       0       0       0
      Temps:          0       0       0       0       0       0       0       0       0       0       0       0       0       0       0       0       0
      Totals:         0       0       0       0       0       0       0       0       0       0       0       0       0       0       0       0       0
Total ram usage:        0 bytes
 Hardware stack levels used:    1
 Hardware stack levels required when called:    3
 This function calls:
		Nothing
 This function is called by:
		_SvcShots
 This function uses a non-reentrant model


 *************** function _SetFeedRate *****************
 Defined at:
		line 8112 in file "D:\Users\MichaelZarling\Documents\Lobster\cs020_sw\Master_v1p226p34-XC8\EL04\main\master.c"
 Parameters:    Size  Location     Type
  feedpwm         4    0[BANK0 ] long 
 Auto vars:     Size  Location     Type
		None
 Return value:  Size  Location     Type
		None               void
 Registers used:
		wreg, status,2, status,0
 Tracked objects:
		On entry : 
		On exit  : 
		Unchanged: 
 Data sizes:     COMRAM   BANK0   BANK1   BANK2   BANK3   BANK4   BANK5   BANK6   BANK7   BANK8   BANK9  BANK10  BANK11  BANK12  BANK13  BANK14  BANK15
      Params:         0       4       0       0       0       0       0       0       0       0       0       0       0       0       0       0       0
      Locals:         0       0       0       0       0       0       0       0       0       0       0       0       0       0       0       0       0
      Temps:          0       4       0       0       0       0       0       0       0       0       0       0       0       0       0       0       0
      Totals:         0       8       0       0       0       0       0       0       0       0       0       0       0       0       0       0       0
Total ram usage:        8 bytes
 Hardware stack levels used:    1
 Hardware stack levels required when called:    3
 This function calls:
		Nothing
 This function is called by:
		_SvcShots
		_CurShot_diag
		_feed_diag
		_lob_play
		_lob_test
 This function uses a non-reentrant model


 *************** function _GetMtrResponse *****************
 Defined at:
		line 8053 in file "D:\Users\MichaelZarling\Documents\Lobster\cs020_sw\Master_v1p226p34-XC8\EL04\main\master.c"
 Parameters:    Size  Location     Type
		None
 Auto vars:     Size  Location     Type
  rc              2    4[BANK0 ] int 
 Return value:  Size  Location     Type
                  2    0[BANK0 ] int 
 Registers used:
		wreg, status,2, status,0
 Tracked objects:
		On entry : 
		On exit  : 
		Unchanged: 
 Data sizes:     COMRAM   BANK0   BANK1   BANK2   BANK3   BANK4   BANK5   BANK6   BANK7   BANK8   BANK9  BANK10  BANK11  BANK12  BANK13  BANK14  BANK15
      Params:         0       2       0       0       0       0       0       0       0       0       0       0       0       0       0       0       0
      Locals:         0       2       0       0       0       0       0       0       0       0       0       0       0       0       0       0       0
      Temps:          0       2       0       0       0       0       0       0       0       0       0       0       0       0       0       0       0
      Totals:         0       6       0       0       0       0       0       0       0       0       0       0       0       0       0       0       0
Total ram usage:        6 bytes
 Hardware stack levels used:    1
 Hardware stack levels required when called:    3
 This function calls:
		Nothing
 This function is called by:
		_SvcShots
 This function uses a non-reentrant model


 *************** function _FeedPwm2Sec *****************
 Defined at:
		line 8822 in file "D:\Users\MichaelZarling\Documents\Lobster\cs020_sw\Master_v1p226p34-XC8\EL04\main\master.c"
 Parameters:    Size  Location     Type
  feed            4    0[BANK0 ] unsigned long 
 Auto vars:     Size  Location     Type
  i               2   12[BANK0 ] int 
 Return value:  Size  Location     Type
                  4    0[BANK0 ] unsigned long 
 Registers used:
		wreg, status,2, status,0, tblptrl, tblptrh, tblptru
 Tracked objects:
		On entry : 
		On exit  : 
		Unchanged: 
 Data sizes:     COMRAM   BANK0   BANK1   BANK2   BANK3   BANK4   BANK5   BANK6   BANK7   BANK8   BANK9  BANK10  BANK11  BANK12  BANK13  BANK14  BANK15
      Params:         0       4       0       0       0       0       0       0       0       0       0       0       0       0       0       0       0
      Locals:         0       2       0       0       0       0       0       0       0       0       0       0       0       0       0       0       0
      Temps:          0       8       0       0       0       0       0       0       0       0       0       0       0       0       0       0       0
      Totals:         0      14       0       0       0       0       0       0       0       0       0       0       0       0       0       0       0
Total ram usage:       14 bytes
 Hardware stack levels used:    1
 Hardware stack levels required when called:    3
 This function calls:
		Nothing
 This function is called by:
		_SvcShots
		_main
 This function uses a non-reentrant model


 *************** function _SpeedInRange *****************
 Defined at:
		line 8848 in file "D:\Users\MichaelZarling\Documents\Lobster\cs020_sw\Master_v1p226p34-XC8\EL04\main\master.c"
 Parameters:    Size  Location     Type
		None
 Auto vars:     Size  Location     Type
		None
 Return value:  Size  Location     Type
                  2    0[BANK0 ] int 
 Registers used:
		wreg, status,2, status,0
 Tracked objects:
		On entry : 
		On exit  : 
		Unchanged: 
 Data sizes:     COMRAM   BANK0   BANK1   BANK2   BANK3   BANK4   BANK5   BANK6   BANK7   BANK8   BANK9  BANK10  BANK11  BANK12  BANK13  BANK14  BANK15
      Params:         0       2       0       0       0       0       0       0       0       0       0       0       0       0       0       0       0
      Locals:         0       0       0       0       0       0       0       0       0       0       0       0       0       0       0       0       0
      Temps:          0       0       0       0       0       0       0       0       0       0       0       0       0       0       0       0       0
      Totals:         0       2       0       0       0       0       0       0       0       0       0       0       0       0       0       0       0
Total ram usage:        2 bytes
 Hardware stack levels used:    1
 Hardware stack levels required when called:    3
 This function calls:
		Nothing
 This function is called by:
		_main
 This function uses a non-reentrant model


 *************** function _Setup *****************
 Defined at:
		line 3071 in file "D:\Users\MichaelZarling\Documents\Lobster\cs020_sw\Master_v1p226p34-XC8\EL04\main\master.c"
 Parameters:    Size  Location     Type
		None
 Auto vars:     Size  Location     Type
  ix              2   24[BANK0 ] int 
 Return value:  Size  Location     Type
		None               void
 Registers used:
		wreg, fsr2l, fsr2h, status,2, status,0, tblptrl, tblptrh, tblptru, prodl, prodh, cstack
 Tracked objects:
		On entry : 
		On exit  : 
		Unchanged: 
 Data sizes:     COMRAM   BANK0   BANK1   BANK2   BANK3   BANK4   BANK5   BANK6   BANK7   BANK8   BANK9  BANK10  BANK11  BANK12  BANK13  BANK14  BANK15
      Params:         0       0       0       0       0       0       0       0       0       0       0       0       0       0       0       0       0
      Locals:         0       2       0       0       0       0       0       0       0       0       0       0       0       0       0       0       0
      Temps:          0       6       0       0       0       0       0       0       0       0       0       0       0       0       0       0       0
      Totals:         0       8       0       0       0       0       0       0       0       0       0       0       0       0       0       0       0
Total ram usage:        8 bytes
 Hardware stack levels used:    1
 Hardware stack levels required when called:    6
 This function calls:
		_Delay1KTCYx
		_Open1USART
		_Open2USART
		_OpenCapture1
		_OpenCapture2
		_OpenPWM3
		_OpenPWM4
		_OpenPWM5
		_OpenSPI1
		_OpenTimer0
		_OpenTimer1
		_OpenTimer3
		_OpenTimer4
		_OpenXLCD
		_SetDCPWM3
		_SetDCPWM4
		_SetDCPWM5
		_memset
		_rbuf_init
		_set_intensity
		_varinit
 This function is called by:
		_main
 This function uses a non-reentrant model


 *************** function _varinit *****************
 Defined at:
		line 94 in file "D:\Users\MichaelZarling\Documents\Lobster\cs020_sw\Master_v1p226p34-XC8\EL04\main\varinit.c"
 Parameters:    Size  Location     Type
		None
 Auto vars:     Size  Location     Type
  i               2   16[BANK0 ] int 
  locp            2   13[BANK0 ] PTR const struct el04_lo
		 -> court_locs(9000), 
  j               1   15[BANK0 ] unsigned char 
 Return value:  Size  Location     Type
		None               void
 Registers used:
		wreg, fsr2l, fsr2h, status,2, status,0, tblptrl, tblptrh, tblptru, prodl, prodh, cstack
 Tracked objects:
		On entry : 
		On exit  : 
		Unchanged: 
 Data sizes:     COMRAM   BANK0   BANK1   BANK2   BANK3   BANK4   BANK5   BANK6   BANK7   BANK8   BANK9  BANK10  BANK11  BANK12  BANK13  BANK14  BANK15
      Params:         0       0       0       0       0       0       0       0       0       0       0       0       0       0       0       0       0
      Locals:         0       5       0       0       0       0       0       0       0       0       0       0       0       0       0       0       0
      Temps:          0       5       0       0       0       0       0       0       0       0       0       0       0       0       0       0       0
      Totals:         0      10       0       0       0       0       0       0       0       0       0       0       0       0       0       0       0
Total ram usage:       10 bytes
 Hardware stack levels used:    1
 Hardware stack levels required when called:    4
 This function calls:
		___wmul
		_memset
 This function is called by:
		_Setup
 This function uses a non-reentrant model


 *************** function _memset *****************
 Defined at:
		line 8 in file "C:\Program Files (x86)\Microchip\xc8\v1.33\sources\common\memset.c"
 Parameters:    Size  Location     Type
  p1              2    0[BANK0 ] PTR void 
		 -> power(5), SlaveRes(32), SlaveCmd(32), DiagBuf(32), 
		 -> NextShot(16), CurShot(16), LastShot(16), ErrorStat(2), 
		 -> bot_stat(2), feed_stat(2), top_stat(2), stat(1), 
  c               2    2[BANK0 ] int 
  n               2    4[BANK0 ] unsigned int 
 Auto vars:     Size  Location     Type
  p               2    6[BANK0 ] PTR unsigned char 
		 -> power(5), SlaveRes(32), SlaveCmd(32), DiagBuf(32), 
		 -> NextShot(16), CurShot(16), LastShot(16), ErrorStat(2), 
		 -> bot_stat(2), feed_stat(2), top_stat(2), stat(1), 
 Return value:  Size  Location     Type
                  2    0[BANK0 ] PTR void 
 Registers used:
		wreg, fsr2l, fsr2h, status,2, status,0
 Tracked objects:
		On entry : 
		On exit  : 
		Unchanged: 
 Data sizes:     COMRAM   BANK0   BANK1   BANK2   BANK3   BANK4   BANK5   BANK6   BANK7   BANK8   BANK9  BANK10  BANK11  BANK12  BANK13  BANK14  BANK15
      Params:         0       6       0       0       0       0       0       0       0       0       0       0       0       0       0       0       0
      Locals:         0       2       0       0       0       0       0       0       0       0       0       0       0       0       0       0       0
      Temps:          0       0       0       0       0       0       0       0       0       0       0       0       0       0       0       0       0
      Totals:         0       8       0       0       0       0       0       0       0       0       0       0       0       0       0       0       0
Total ram usage:        8 bytes
 Hardware stack levels used:    1
 Hardware stack levels required when called:    3
 This function calls:
		Nothing
 This function is called by:
		_Setup
		_varinit
 This function uses a non-reentrant model


 *************** function _set_intensity *****************
 Defined at:
		line 46 in file "D:\Users\MichaelZarling\Documents\Lobster\cs020_sw\Master_v1p226p34-XC8\EL04\main\loblcd.c"
 Parameters:    Size  Location     Type
		None
 Auto vars:     Size  Location     Type
		None
 Return value:  Size  Location     Type
		None               void
 Registers used:
		wreg, status,2, status,0, cstack
 Tracked objects:
		On entry : 
		On exit  : 
		Unchanged: 
 Data sizes:     COMRAM   BANK0   BANK1   BANK2   BANK3   BANK4   BANK5   BANK6   BANK7   BANK8   BANK9  BANK10  BANK11  BANK12  BANK13  BANK14  BANK15
      Params:         0       0       0       0       0       0       0       0       0       0       0       0       0       0       0       0       0
      Locals:         0       0       0       0       0       0       0       0       0       0       0       0       0       0       0       0       0
      Temps:          0       0       0       0       0       0       0       0       0       0       0       0       0       0       0       0       0
      Totals:         0       0       0       0       0       0       0       0       0       0       0       0       0       0       0       0       0
Total ram usage:        0 bytes
 Hardware stack levels used:    1
 Hardware stack levels required when called:    4
 This function calls:
		_ChipDeSelect
		_ChipSelect
		_WriteSPI1
 This function is called by:
		_Setup
		_main
 This function uses a non-reentrant model


 *************** function _rbuf_init *****************
 Defined at:
		line 36 in file "D:\Users\MichaelZarling\Documents\Lobster\cs020_sw\Master_v1p226p34-XC8\EL04\main\ringbuf.c"
 Parameters:    Size  Location     Type
  rbptr           2    0[BANK0 ] PTR volatile struct rbuf
		 -> di_outbuf(104), di_inbuf(104), 
  channo          2    2[BANK0 ] int 
 Auto vars:     Size  Location     Type
		None
 Return value:  Size  Location     Type
		None               void
 Registers used:
		wreg, fsr2l, fsr2h, status,2, status,0
 Tracked objects:
		On entry : 
		On exit  : 
		Unchanged: 
 Data sizes:     COMRAM   BANK0   BANK1   BANK2   BANK3   BANK4   BANK5   BANK6   BANK7   BANK8   BANK9  BANK10  BANK11  BANK12  BANK13  BANK14  BANK15
      Params:         0       4       0       0       0       0       0       0       0       0       0       0       0       0       0       0       0
      Locals:         0       0       0       0       0       0       0       0       0       0       0       0       0       0       0       0       0
      Temps:          0       0       0       0       0       0       0       0       0       0       0       0       0       0       0       0       0
      Totals:         0       4       0       0       0       0       0       0       0       0       0       0       0       0       0       0       0
Total ram usage:        4 bytes
 Hardware stack levels used:    1
 Hardware stack levels required when called:    3
 This function calls:
		Nothing
 This function is called by:
		_Setup
 This function uses a non-reentrant model


 *************** function _OpenXLCD *****************
 Defined at:
		line 20 in file "D:\Users\MichaelZarling\Documents\Lobster\cs020_sw\Master_v1p226p34-XC8\EL04\main\..\xlcd\openxlcd.c"
 Parameters:    Size  Location     Type
  lcdtype         1    wreg     unsigned char 
 Auto vars:     Size  Location     Type
  lcdtype         1    2[BANK0 ] unsigned char 
 Return value:  Size  Location     Type
		None               void
 Registers used:
		wreg, status,2, status,0, cstack
 Tracked objects:
		On entry : 
		On exit  : 
		Unchanged: 
 Data sizes:     COMRAM   BANK0   BANK1   BANK2   BANK3   BANK4   BANK5   BANK6   BANK7   BANK8   BANK9  BANK10  BANK11  BANK12  BANK13  BANK14  BANK15
      Params:         0       0       0       0       0       0       0       0       0       0       0       0       0       0       0       0       0
      Locals:         0       1       0       0       0       0       0       0       0       0       0       0       0       0       0       0       0
      Temps:          0       0       0       0       0       0       0       0       0       0       0       0       0       0       0       0       0
      Totals:         0       1       0       0       0       0       0       0       0       0       0       0       0       0       0       0       0
Total ram usage:        1 bytes
 Hardware stack levels used:    1
 Hardware stack levels required when called:    5
 This function calls:
		_BusyXLCD
		_Delay10KTCYx
		_DelayPORXLCD
		_SetDDRamAddr
		_WriteCmdXLCD
 This function is called by:
		_Setup
 This function uses a non-reentrant model


 *************** function _WriteCmdXLCD *****************
 Defined at:
		line 14 in file "D:\Users\MichaelZarling\Documents\Lobster\cs020_sw\Master_v1p226p34-XC8\EL04\main\..\xlcd\wcmdxlcd.c"
 Parameters:    Size  Location     Type
  cmd             1    wreg     unsigned char 
 Auto vars:     Size  Location     Type
  cmd             1    0[BANK0 ] unsigned char 
 Return value:  Size  Location     Type
		None               void
 Registers used:
		wreg, cstack
 Tracked objects:
		On entry : 
		On exit  : 
		Unchanged: 
 Data sizes:     COMRAM   BANK0   BANK1   BANK2   BANK3   BANK4   BANK5   BANK6   BANK7   BANK8   BANK9  BANK10  BANK11  BANK12  BANK13  BANK14  BANK15
      Params:         0       0       0       0       0       0       0       0       0       0       0       0       0       0       0       0       0
      Locals:         0       1       0       0       0       0       0       0       0       0       0       0       0       0       0       0       0
      Temps:          0       0       0       0       0       0       0       0       0       0       0       0       0       0       0       0       0
      Totals:         0       1       0       0       0       0       0       0       0       0       0       0       0       0       0       0       0
Total ram usage:        1 bytes
 Hardware stack levels used:    1
 Hardware stack levels required when called:    4
 This function calls:
		_DelayFor18TCY
 This function is called by:
		_OpenXLCD
 This function uses a non-reentrant model


 *************** function _SetDDRamAddr *****************
 Defined at:
		line 14 in file "D:\Users\MichaelZarling\Documents\Lobster\cs020_sw\Master_v1p226p34-XC8\EL04\main\..\xlcd\setddram.c"
 Parameters:    Size  Location     Type
  DDaddr          1    wreg     unsigned char 
 Auto vars:     Size  Location     Type
  DDaddr          1    0[BANK0 ] unsigned char 
 Return value:  Size  Location     Type
		None               void
 Registers used:
		wreg, status,2, status,0, cstack
 Tracked objects:
		On entry : 
		On exit  : 
		Unchanged: 
 Data sizes:     COMRAM   BANK0   BANK1   BANK2   BANK3   BANK4   BANK5   BANK6   BANK7   BANK8   BANK9  BANK10  BANK11  BANK12  BANK13  BANK14  BANK15
      Params:         0       0       0       0       0       0       0       0       0       0       0       0       0       0       0       0       0
      Locals:         0       1       0       0       0       0       0       0       0       0       0       0       0       0       0       0       0
      Temps:          0       0       0       0       0       0       0       0       0       0       0       0       0       0       0       0       0
      Totals:         0       1       0       0       0       0       0       0       0       0       0       0       0       0       0       0       0
Total ram usage:        1 bytes
 Hardware stack levels used:    1
 Hardware stack levels required when called:    4
 This function calls:
		_DelayFor18TCY
 This function is called by:
		_lobmain
		_OpenXLCD
 This function uses a non-reentrant model


 *************** function _DelayPORXLCD *****************
 Defined at:
		line 741 in file "D:\Users\MichaelZarling\Documents\Lobster\cs020_sw\Master_v1p226p34-XC8\EL04\main\master.c"
 Parameters:    Size  Location     Type
		None
 Auto vars:     Size  Location     Type
		None
 Return value:  Size  Location     Type
		None               void
 Registers used:
		wreg, cstack
 Tracked objects:
		On entry : 
		On exit  : 
		Unchanged: 
 Data sizes:     COMRAM   BANK0   BANK1   BANK2   BANK3   BANK4   BANK5   BANK6   BANK7   BANK8   BANK9  BANK10  BANK11  BANK12  BANK13  BANK14  BANK15
      Params:         0       0       0       0       0       0       0       0       0       0       0       0       0       0       0       0       0
      Locals:         0       0       0       0       0       0       0       0       0       0       0       0       0       0       0       0       0
      Temps:          0       0       0       0       0       0       0       0       0       0       0       0       0       0       0       0       0
      Totals:         0       0       0       0       0       0       0       0       0       0       0       0       0       0       0       0       0
Total ram usage:        0 bytes
 Hardware stack levels used:    1
 Hardware stack levels required when called:    4
 This function calls:
		_Delay1KTCYx
 This function is called by:
		_OpenXLCD
 This function uses a non-reentrant model


 *************** function _Delay10KTCYx *****************
 Defined at:
		line 8 in file "C:\Program Files (x86)\Microchip\xc8\v1.33\sources\pic18\d10ktcyx.c"
 Parameters:    Size  Location     Type
  unit            1    wreg     unsigned char 
 Auto vars:     Size  Location     Type
  unit            1    1[BANK0 ] unsigned char 
 Return value:  Size  Location     Type
		None               void
 Registers used:
		wreg
 Tracked objects:
		On entry : 
		On exit  : 
		Unchanged: 
 Data sizes:     COMRAM   BANK0   BANK1   BANK2   BANK3   BANK4   BANK5   BANK6   BANK7   BANK8   BANK9  BANK10  BANK11  BANK12  BANK13  BANK14  BANK15
      Params:         0       0       0       0       0       0       0       0       0       0       0       0       0       0       0       0       0
      Locals:         0       1       0       0       0       0       0       0       0       0       0       0       0       0       0       0       0
      Temps:          0       1       0       0       0       0       0       0       0       0       0       0       0       0       0       0       0
      Totals:         0       2       0       0       0       0       0       0       0       0       0       0       0       0       0       0       0
Total ram usage:        2 bytes
 Hardware stack levels used:    1
 Hardware stack levels required when called:    3
 This function calls:
		Nothing
 This function is called by:
		_OpenXLCD
 This function uses a non-reentrant model


 *************** function _BusyXLCD *****************
 Defined at:
		line 12 in file "D:\Users\MichaelZarling\Documents\Lobster\cs020_sw\Master_v1p226p34-XC8\EL04\main\..\xlcd\busyxlcd.c"
 Parameters:    Size  Location     Type
		None
 Auto vars:     Size  Location     Type
		None
 Return value:  Size  Location     Type
                  1    wreg      unsigned char 
 Registers used:
		wreg, cstack
 Tracked objects:
		On entry : 
		On exit  : 
		Unchanged: 
 Data sizes:     COMRAM   BANK0   BANK1   BANK2   BANK3   BANK4   BANK5   BANK6   BANK7   BANK8   BANK9  BANK10  BANK11  BANK12  BANK13  BANK14  BANK15
      Params:         0       0       0       0       0       0       0       0       0       0       0       0       0       0       0       0       0
      Locals:         0       0       0       0       0       0       0       0       0       0       0       0       0       0       0       0       0
      Temps:          0       0       0       0       0       0       0       0       0       0       0       0       0       0       0       0       0
      Totals:         0       0       0       0       0       0       0       0       0       0       0       0       0       0       0       0       0
Total ram usage:        0 bytes
 Hardware stack levels used:    1
 Hardware stack levels required when called:    4
 This function calls:
		_DelayFor18TCY
 This function is called by:
		_lobmain
		_OpenXLCD
		_putrsXLCD
		_putsXLCD
 This function uses a non-reentrant model


 *************** function _DelayFor18TCY *****************
 Defined at:
		line 723 in file "D:\Users\MichaelZarling\Documents\Lobster\cs020_sw\Master_v1p226p34-XC8\EL04\main\master.c"
 Parameters:    Size  Location     Type
		None
 Auto vars:     Size  Location     Type
		None
 Return value:  Size  Location     Type
		None               void
 Registers used:
		None
 Tracked objects:
		On entry : 
		On exit  : 
		Unchanged: 
 Data sizes:     COMRAM   BANK0   BANK1   BANK2   BANK3   BANK4   BANK5   BANK6   BANK7   BANK8   BANK9  BANK10  BANK11  BANK12  BANK13  BANK14  BANK15
      Params:         0       0       0       0       0       0       0       0       0       0       0       0       0       0       0       0       0
      Locals:         0       0       0       0       0       0       0       0       0       0       0       0       0       0       0       0       0
      Temps:          0       0       0       0       0       0       0       0       0       0       0       0       0       0       0       0       0
      Totals:         0       0       0       0       0       0       0       0       0       0       0       0       0       0       0       0       0
Total ram usage:        0 bytes
 Hardware stack levels used:    1
 Hardware stack levels required when called:    3
 This function calls:
		Nothing
 This function is called by:
		_BusyXLCD
		_SetDDRamAddr
		_WriteCmdXLCD
		_WriteDataXLCD
 This function uses a non-reentrant model


 *************** function _OpenTimer4 *****************
 Defined at:
		line 16 in file "C:\Program Files (x86)\Microchip\xc8\v1.33\sources\pic18\plib\Timers\t4open.c"
 Parameters:    Size  Location     Type
  config          1    wreg     unsigned char 
 Auto vars:     Size  Location     Type
  config          1    0[BANK0 ] unsigned char 
 Return value:  Size  Location     Type
		None               void
 Registers used:
		wreg, status,2, status,0
 Tracked objects:
		On entry : 
		On exit  : 
		Unchanged: 
 Data sizes:     COMRAM   BANK0   BANK1   BANK2   BANK3   BANK4   BANK5   BANK6   BANK7   BANK8   BANK9  BANK10  BANK11  BANK12  BANK13  BANK14  BANK15
      Params:         0       0       0       0       0       0       0       0       0       0       0       0       0       0       0       0       0
      Locals:         0       1       0       0       0       0       0       0       0       0       0       0       0       0       0       0       0
      Temps:          0       0       0       0       0       0       0       0       0       0       0       0       0       0       0       0       0
      Totals:         0       1       0       0       0       0       0       0       0       0       0       0       0       0       0       0       0
Total ram usage:        1 bytes
 Hardware stack levels used:    1
 Hardware stack levels required when called:    3
 This function calls:
		Nothing
 This function is called by:
		_Setup
 This function uses a non-reentrant model


 *************** function _OpenTimer3 *****************
 Defined at:
		line 29 in file "C:\Program Files (x86)\Microchip\xc8\v1.33\sources\pic18\plib\Timers\t3open.c"
 Parameters:    Size  Location     Type
  config          1    wreg     unsigned char 
 Auto vars:     Size  Location     Type
  config          1    0[BANK0 ] unsigned char 
 Return value:  Size  Location     Type
		None               void
 Registers used:
		wreg, status,2, status,0
 Tracked objects:
		On entry : 
		On exit  : 
		Unchanged: 
 Data sizes:     COMRAM   BANK0   BANK1   BANK2   BANK3   BANK4   BANK5   BANK6   BANK7   BANK8   BANK9  BANK10  BANK11  BANK12  BANK13  BANK14  BANK15
      Params:         0       0       0       0       0       0       0       0       0       0       0       0       0       0       0       0       0
      Locals:         0       1       0       0       0       0       0       0       0       0       0       0       0       0       0       0       0
      Temps:          0       0       0       0       0       0       0       0       0       0       0       0       0       0       0       0       0
      Totals:         0       1       0       0       0       0       0       0       0       0       0       0       0       0       0       0       0
Total ram usage:        1 bytes
 Hardware stack levels used:    1
 Hardware stack levels required when called:    3
 This function calls:
		Nothing
 This function is called by:
		_Setup
 This function uses a non-reentrant model


 *************** function _OpenTimer1 *****************
 Defined at:
		line 16 in file "C:\Program Files (x86)\Microchip\xc8\v1.33\sources\pic18\plib\Timers\t1open.c"
 Parameters:    Size  Location     Type
  config          1    wreg     unsigned char 
 Auto vars:     Size  Location     Type
  config          1    0[BANK0 ] unsigned char 
 Return value:  Size  Location     Type
		None               void
 Registers used:
		wreg, status,2, status,0
 Tracked objects:
		On entry : 
		On exit  : 
		Unchanged: 
 Data sizes:     COMRAM   BANK0   BANK1   BANK2   BANK3   BANK4   BANK5   BANK6   BANK7   BANK8   BANK9  BANK10  BANK11  BANK12  BANK13  BANK14  BANK15
      Params:         0       0       0       0       0       0       0       0       0       0       0       0       0       0       0       0       0
      Locals:         0       1       0       0       0       0       0       0       0       0       0       0       0       0       0       0       0
      Temps:          0       0       0       0       0       0       0       0       0       0       0       0       0       0       0       0       0
      Totals:         0       1       0       0       0       0       0       0       0       0       0       0       0       0       0       0       0
Total ram usage:        1 bytes
 Hardware stack levels used:    1
 Hardware stack levels required when called:    3
 This function calls:
		Nothing
 This function is called by:
		_Setup
 This function uses a non-reentrant model


 *************** function _OpenTimer0 *****************
 Defined at:
		line 18 in file "C:\Program Files (x86)\Microchip\xc8\v1.33\sources\pic18\plib\Timers\t0open.c"
 Parameters:    Size  Location     Type
  config          1    wreg     unsigned char 
 Auto vars:     Size  Location     Type
  config          1    0[BANK0 ] unsigned char 
 Return value:  Size  Location     Type
		None               void
 Registers used:
		wreg, status,2, status,0
 Tracked objects:
		On entry : 
		On exit  : 
		Unchanged: 
 Data sizes:     COMRAM   BANK0   BANK1   BANK2   BANK3   BANK4   BANK5   BANK6   BANK7   BANK8   BANK9  BANK10  BANK11  BANK12  BANK13  BANK14  BANK15
      Params:         0       0       0       0       0       0       0       0       0       0       0       0       0       0       0       0       0
      Locals:         0       1       0       0       0       0       0       0       0       0       0       0       0       0       0       0       0
      Temps:          0       0       0       0       0       0       0       0       0       0       0       0       0       0       0       0       0
      Totals:         0       1       0       0       0       0       0       0       0       0       0       0       0       0       0       0       0
Total ram usage:        1 bytes
 Hardware stack levels used:    1
 Hardware stack levels required when called:    3
 This function calls:
		Nothing
 This function is called by:
		_Setup
 This function uses a non-reentrant model


 *************** function _OpenSPI1 *****************
 Defined at:
		line 13 in file "C:\Program Files (x86)\Microchip\xc8\v1.33\sources\pic18\plib\SPI\spi1open.c"
 Parameters:    Size  Location     Type
  sync_mode       1    wreg     unsigned char 
  bus_mode        1    0[BANK0 ] unsigned char 
  smp_phase       1    1[BANK0 ] unsigned char 
 Auto vars:     Size  Location     Type
  sync_mode       1    2[BANK0 ] unsigned char 
 Return value:  Size  Location     Type
		None               void
 Registers used:
		wreg, status,2, status,0
 Tracked objects:
		On entry : 
		On exit  : 
		Unchanged: 
 Data sizes:     COMRAM   BANK0   BANK1   BANK2   BANK3   BANK4   BANK5   BANK6   BANK7   BANK8   BANK9  BANK10  BANK11  BANK12  BANK13  BANK14  BANK15
      Params:         0       2       0       0       0       0       0       0       0       0       0       0       0       0       0       0       0
      Locals:         0       1       0       0       0       0       0       0       0       0       0       0       0       0       0       0       0
      Temps:          0       0       0       0       0       0       0       0       0       0       0       0       0       0       0       0       0
      Totals:         0       3       0       0       0       0       0       0       0       0       0       0       0       0       0       0       0
Total ram usage:        3 bytes
 Hardware stack levels used:    1
 Hardware stack levels required when called:    3
 This function calls:
		Nothing
 This function is called by:
		_Setup
 This function uses a non-reentrant model


 *************** function _OpenPWM5 *****************
 Defined at:
		line 15 in file "C:\Program Files (x86)\Microchip\xc8\v1.33\sources\pic18\plib\PWM\pw5open.c"
 Parameters:    Size  Location     Type
  period          1    wreg     unsigned char 
 Auto vars:     Size  Location     Type
  period          1    0[BANK0 ] unsigned char 
 Return value:  Size  Location     Type
		None               void
 Registers used:
		wreg, status,2
 Tracked objects:
		On entry : 
		On exit  : 
		Unchanged: 
 Data sizes:     COMRAM   BANK0   BANK1   BANK2   BANK3   BANK4   BANK5   BANK6   BANK7   BANK8   BANK9  BANK10  BANK11  BANK12  BANK13  BANK14  BANK15
      Params:         0       0       0       0       0       0       0       0       0       0       0       0       0       0       0       0       0
      Locals:         0       1       0       0       0       0       0       0       0       0       0       0       0       0       0       0       0
      Temps:          0       0       0       0       0       0       0       0       0       0       0       0       0       0       0       0       0
      Totals:         0       1       0       0       0       0       0       0       0       0       0       0       0       0       0       0       0
Total ram usage:        1 bytes
 Hardware stack levels used:    1
 Hardware stack levels required when called:    3
 This function calls:
		Nothing
 This function is called by:
		_Setup
 This function uses a non-reentrant model


 *************** function _OpenPWM4 *****************
 Defined at:
		line 14 in file "C:\Program Files (x86)\Microchip\xc8\v1.33\sources\pic18\plib\PWM\pw4open.c"
 Parameters:    Size  Location     Type
  period          1    wreg     unsigned char 
 Auto vars:     Size  Location     Type
  period          1    0[BANK0 ] unsigned char 
 Return value:  Size  Location     Type
		None               void
 Registers used:
		wreg, status,2
 Tracked objects:
		On entry : 
		On exit  : 
		Unchanged: 
 Data sizes:     COMRAM   BANK0   BANK1   BANK2   BANK3   BANK4   BANK5   BANK6   BANK7   BANK8   BANK9  BANK10  BANK11  BANK12  BANK13  BANK14  BANK15
      Params:         0       0       0       0       0       0       0       0       0       0       0       0       0       0       0       0       0
      Locals:         0       1       0       0       0       0       0       0       0       0       0       0       0       0       0       0       0
      Temps:          0       0       0       0       0       0       0       0       0       0       0       0       0       0       0       0       0
      Totals:         0       1       0       0       0       0       0       0       0       0       0       0       0       0       0       0       0
Total ram usage:        1 bytes
 Hardware stack levels used:    1
 Hardware stack levels required when called:    3
 This function calls:
		Nothing
 This function is called by:
		_Setup
 This function uses a non-reentrant model


 *************** function _OpenPWM3 *****************
 Defined at:
		line 24 in file "C:\Program Files (x86)\Microchip\xc8\v1.33\sources\pic18\plib\PWM\pw3open.c"
 Parameters:    Size  Location     Type
  period          1    wreg     unsigned char 
 Auto vars:     Size  Location     Type
  period          1    0[BANK0 ] unsigned char 
 Return value:  Size  Location     Type
		None               void
 Registers used:
		wreg, status,2
 Tracked objects:
		On entry : 
		On exit  : 
		Unchanged: 
 Data sizes:     COMRAM   BANK0   BANK1   BANK2   BANK3   BANK4   BANK5   BANK6   BANK7   BANK8   BANK9  BANK10  BANK11  BANK12  BANK13  BANK14  BANK15
      Params:         0       0       0       0       0       0       0       0       0       0       0       0       0       0       0       0       0
      Locals:         0       1       0       0       0       0       0       0       0       0       0       0       0       0       0       0       0
      Temps:          0       0       0       0       0       0       0       0       0       0       0       0       0       0       0       0       0
      Totals:         0       1       0       0       0       0       0       0       0       0       0       0       0       0       0       0       0
Total ram usage:        1 bytes
 Hardware stack levels used:    1
 Hardware stack levels required when called:    3
 This function calls:
		Nothing
 This function is called by:
		_Setup
 This function uses a non-reentrant model


 *************** function _OpenCapture2 *****************
 Defined at:
		line 30 in file "C:\Program Files (x86)\Microchip\xc8\v1.33\sources\pic18\plib\CCP\cp2open.c"
 Parameters:    Size  Location     Type
  config          1    wreg     unsigned char 
 Auto vars:     Size  Location     Type
  config          1    2[BANK0 ] unsigned char 
  ccp2mx          1    1[BANK0 ] unsigned char 
  pmmode          1    0        unsigned char 
 Return value:  Size  Location     Type
		None               void
 Registers used:
		wreg, status,2, status,0, tblptrl, tblptrh, tblptru
 Tracked objects:
		On entry : 
		On exit  : 
		Unchanged: 
 Data sizes:     COMRAM   BANK0   BANK1   BANK2   BANK3   BANK4   BANK5   BANK6   BANK7   BANK8   BANK9  BANK10  BANK11  BANK12  BANK13  BANK14  BANK15
      Params:         0       0       0       0       0       0       0       0       0       0       0       0       0       0       0       0       0
      Locals:         0       2       0       0       0       0       0       0       0       0       0       0       0       0       0       0       0
      Temps:          0       1       0       0       0       0       0       0       0       0       0       0       0       0       0       0       0
      Totals:         0       3       0       0       0       0       0       0       0       0       0       0       0       0       0       0       0
Total ram usage:        3 bytes
 Hardware stack levels used:    1
 Hardware stack levels required when called:    3
 This function calls:
		Nothing
 This function is called by:
		_Setup
 This function uses a non-reentrant model


 *************** function _OpenCapture1 *****************
 Defined at:
		line 31 in file "C:\Program Files (x86)\Microchip\xc8\v1.33\sources\pic18\plib\CCP\cp1open.c"
 Parameters:    Size  Location     Type
  config          1    wreg     unsigned char 
 Auto vars:     Size  Location     Type
  config          1    0[BANK0 ] unsigned char 
 Return value:  Size  Location     Type
		None               void
 Registers used:
		wreg, status,2, status,0
 Tracked objects:
		On entry : 
		On exit  : 
		Unchanged: 
 Data sizes:     COMRAM   BANK0   BANK1   BANK2   BANK3   BANK4   BANK5   BANK6   BANK7   BANK8   BANK9  BANK10  BANK11  BANK12  BANK13  BANK14  BANK15
      Params:         0       0       0       0       0       0       0       0       0       0       0       0       0       0       0       0       0
      Locals:         0       1       0       0       0       0       0       0       0       0       0       0       0       0       0       0       0
      Temps:          0       0       0       0       0       0       0       0       0       0       0       0       0       0       0       0       0
      Totals:         0       1       0       0       0       0       0       0       0       0       0       0       0       0       0       0       0
Total ram usage:        1 bytes
 Hardware stack levels used:    1
 Hardware stack levels required when called:    3
 This function calls:
		Nothing
 This function is called by:
		_Setup
 This function uses a non-reentrant model


 *************** function _Open2USART *****************
 Defined at:
		line 64 in file "C:\Program Files (x86)\Microchip\xc8\v1.33\sources\pic18\plib\USART\u2open.c"
 Parameters:    Size  Location     Type
  config          1    wreg     unsigned char 
  spbrg           2    0[BANK0 ] unsigned int 
 Auto vars:     Size  Location     Type
  config          1    5[BANK0 ] unsigned char 
 Return value:  Size  Location     Type
		None               void
 Registers used:
		wreg, status,2
 Tracked objects:
		On entry : 
		On exit  : 
		Unchanged: 
 Data sizes:     COMRAM   BANK0   BANK1   BANK2   BANK3   BANK4   BANK5   BANK6   BANK7   BANK8   BANK9  BANK10  BANK11  BANK12  BANK13  BANK14  BANK15
      Params:         0       2       0       0       0       0       0       0       0       0       0       0       0       0       0       0       0
      Locals:         0       1       0       0       0       0       0       0       0       0       0       0       0       0       0       0       0
      Temps:          0       3       0       0       0       0       0       0       0       0       0       0       0       0       0       0       0
      Totals:         0       6       0       0       0       0       0       0       0       0       0       0       0       0       0       0       0
Total ram usage:        6 bytes
 Hardware stack levels used:    1
 Hardware stack levels required when called:    3
 This function calls:
		Nothing
 This function is called by:
		_Setup
 This function uses a non-reentrant model


 *************** function _Open1USART *****************
 Defined at:
		line 72 in file "C:\Program Files (x86)\Microchip\xc8\v1.33\sources\pic18\plib\USART\u1open.c"
 Parameters:    Size  Location     Type
  config          1    wreg     unsigned char 
  spbrg           2    0[BANK0 ] unsigned int 
 Auto vars:     Size  Location     Type
  config          1    5[BANK0 ] unsigned char 
 Return value:  Size  Location     Type
		None               void
 Registers used:
		wreg, status,2
 Tracked objects:
		On entry : 
		On exit  : 
		Unchanged: 
 Data sizes:     COMRAM   BANK0   BANK1   BANK2   BANK3   BANK4   BANK5   BANK6   BANK7   BANK8   BANK9  BANK10  BANK11  BANK12  BANK13  BANK14  BANK15
      Params:         0       2       0       0       0       0       0       0       0       0       0       0       0       0       0       0       0
      Locals:         0       1       0       0       0       0       0       0       0       0       0       0       0       0       0       0       0
      Temps:          0       3       0       0       0       0       0       0       0       0       0       0       0       0       0       0       0
      Totals:         0       6       0       0       0       0       0       0       0       0       0       0       0       0       0       0       0
Total ram usage:        6 bytes
 Hardware stack levels used:    1
 Hardware stack levels required when called:    3
 This function calls:
		Nothing
 This function is called by:
		_Setup
 This function uses a non-reentrant model


 *************** function _RemoteSaveDrill *****************
 Defined at:
		line 7034 in file "D:\Users\MichaelZarling\Documents\Lobster\cs020_sw\Master_v1p226p34-XC8\EL04\main\master.c"
 Parameters:    Size  Location     Type
		None
 Auto vars:     Size  Location     Type
  i               1   38[BANK0 ] unsigned char 
  j               1   37[BANK0 ] unsigned char 
 Return value:  Size  Location     Type
		None               void
 Registers used:
		wreg, fsr1l, fsr1h, fsr2l, fsr2h, status,2, status,0, tblptrl, tblptrh, tblptru, prodl, prodh, cstack
 Tracked objects:
		On entry : 
		On exit  : 
		Unchanged: 
 Data sizes:     COMRAM   BANK0   BANK1   BANK2   BANK3   BANK4   BANK5   BANK6   BANK7   BANK8   BANK9  BANK10  BANK11  BANK12  BANK13  BANK14  BANK15
      Params:         0       0       0       0       0       0       0       0       0       0       0       0       0       0       0       0       0
      Locals:         0       2       0       0       0       0       0       0       0       0       0       0       0       0       0       0       0
      Temps:          0       5       0       0       0       0       0       0       0       0       0       0       0       0       0       0       0
      Totals:         0       7       0       0       0       0       0       0       0       0       0       0       0       0       0       0       0
Total ram usage:        7 bytes
 Hardware stack levels used:    1
 Hardware stack levels required when called:    7
 This function calls:
		___wmul
		_save_prog
 This function is called by:
		_main
 This function uses a non-reentrant model


 *************** function _save_prog *****************
 Defined at:
		line 317 in file "D:\Users\MichaelZarling\Documents\Lobster\cs020_sw\Master_v1p226p34-XC8\EL04\main\lobeeprom.c"
 Parameters:    Size  Location     Type
  progno          1    wreg     char 
  ppers           2   24[BANK0 ] PTR struct persprog
		 -> act_program(91), 
 Auto vars:     Size  Location     Type
  progno          1   28[BANK0 ] char 
  eeaddr          2   29[BANK0 ] int 
  i               1   31[BANK0 ] unsigned char 
 Return value:  Size  Location     Type
                  1    wreg      unsigned char 
 Registers used:
		wreg, fsr2l, fsr2h, status,2, status,0, prodl, prodh, cstack
 Tracked objects:
		On entry : 
		On exit  : 
		Unchanged: 
 Data sizes:     COMRAM   BANK0   BANK1   BANK2   BANK3   BANK4   BANK5   BANK6   BANK7   BANK8   BANK9  BANK10  BANK11  BANK12  BANK13  BANK14  BANK15
      Params:         0       2       0       0       0       0       0       0       0       0       0       0       0       0       0       0       0
      Locals:         0       4       0       0       0       0       0       0       0       0       0       0       0       0       0       0       0
      Temps:          0       2       0       0       0       0       0       0       0       0       0       0       0       0       0       0       0
      Totals:         0       8       0       0       0       0       0       0       0       0       0       0       0       0       0       0       0
Total ram usage:        8 bytes
 Hardware stack levels used:    1
 Hardware stack levels required when called:    6
 This function calls:
		_DisableSlaveSPI
		_EnableSlaveSPI
		_SEEWrite
		___wmul
 This function is called by:
		_RemoteSaveDrill
		_poweroff
		_lob_test
		_load_prog
		_lob_preset
 This function uses a non-reentrant model


 *************** function ___wmul *****************
 Defined at:
		line 15 in file "C:\Program Files (x86)\Microchip\xc8\v1.33\sources\common\Umul16.c"
 Parameters:    Size  Location     Type
  multiplier      2    0[BANK0 ] unsigned int 
  multiplicand    2    2[BANK0 ] unsigned int 
 Auto vars:     Size  Location     Type
  product         2    4[BANK0 ] unsigned int 
 Return value:  Size  Location     Type
                  2    0[BANK0 ] unsigned int 
 Registers used:
		wreg, status,2, status,0, prodl, prodh
 Tracked objects:
		On entry : 
		On exit  : 
		Unchanged: 
 Data sizes:     COMRAM   BANK0   BANK1   BANK2   BANK3   BANK4   BANK5   BANK6   BANK7   BANK8   BANK9  BANK10  BANK11  BANK12  BANK13  BANK14  BANK15
      Params:         0       4       0       0       0       0       0       0       0       0       0       0       0       0       0       0       0
      Locals:         0       2       0       0       0       0       0       0       0       0       0       0       0       0       0       0       0
      Temps:          0       0       0       0       0       0       0       0       0       0       0       0       0       0       0       0       0
      Totals:         0       6       0       0       0       0       0       0       0       0       0       0       0       0       0       0       0
Total ram usage:        6 bytes
 Hardware stack levels used:    1
 Hardware stack levels required when called:    3
 This function calls:
		Nothing
 This function is called by:
		_main
		_RemoteSaveDrill
		_CalcLimits
		_build_curshot
		_lob_play
		_lob_test
		_sm_service
		_sm_service_EL04
		_sm_service_EL05LE2
		_load_prog
		_save_prog
		_get60mph0spin
		_show_prog3
		_lob_program
		_varinit
		_isLocAvail
		_getLocAvail
		_lobmain
		_lob_parm
		_lob_error
 This function uses a non-reentrant model


 *************** function _SEEWrite *****************
 Defined at:
		line 7473 in file "D:\Users\MichaelZarling\Documents\Lobster\cs020_sw\Master_v1p226p34-XC8\EL04\main\master.c"
 Parameters:    Size  Location     Type
  addr            2    4[BANK0 ] unsigned int 
  data            1    6[BANK0 ] unsigned char 
 Auto vars:     Size  Location     Type
  status          1   10[BANK0 ] unsigned char 
 Return value:  Size  Location     Type
		None               void
 Registers used:
		wreg, status,2, status,0, cstack
 Tracked objects:
		On entry : 
		On exit  : 
		Unchanged: 
 Data sizes:     COMRAM   BANK0   BANK1   BANK2   BANK3   BANK4   BANK5   BANK6   BANK7   BANK8   BANK9  BANK10  BANK11  BANK12  BANK13  BANK14  BANK15
      Params:         0       3       0       0       0       0       0       0       0       0       0       0       0       0       0       0       0
      Locals:         0       1       0       0       0       0       0       0       0       0       0       0       0       0       0       0       0
      Temps:          0       3       0       0       0       0       0       0       0       0       0       0       0       0       0       0       0
      Totals:         0       7       0       0       0       0       0       0       0       0       0       0       0       0       0       0       0
Total ram usage:        7 bytes
 Hardware stack levels used:    1
 Hardware stack levels required when called:    4
 This function calls:
		_ChipDeSelect
		_ChipReserve
		_Delay1KTCYx
		_ReadSPI1
		_WriteSPI1
 This function is called by:
		_ee_test
		_lob_test
		_save_prog
 This function uses a non-reentrant model


 *************** function _ChipReserve *****************
 Defined at:
		line 7728 in file "D:\Users\MichaelZarling\Documents\Lobster\cs020_sw\Master_v1p226p34-XC8\EL04\main\master.c"
 Parameters:    Size  Location     Type
  dev             2    0[BANK0 ] int 
 Auto vars:     Size  Location     Type
		None
 Return value:  Size  Location     Type
		None               void
 Registers used:
		wreg, status,2
 Tracked objects:
		On entry : 
		On exit  : 
		Unchanged: 
 Data sizes:     COMRAM   BANK0   BANK1   BANK2   BANK3   BANK4   BANK5   BANK6   BANK7   BANK8   BANK9  BANK10  BANK11  BANK12  BANK13  BANK14  BANK15
      Params:         0       2       0       0       0       0       0       0       0       0       0       0       0       0       0       0       0
      Locals:         0       0       0       0       0       0       0       0       0       0       0       0       0       0       0       0       0
      Temps:          0       0       0       0       0       0       0       0       0       0       0       0       0       0       0       0       0
      Totals:         0       2       0       0       0       0       0       0       0       0       0       0       0       0       0       0       0
Total ram usage:        2 bytes
 Hardware stack levels used:    1
 Hardware stack levels required when called:    3
 This function calls:
		Nothing
 This function is called by:
		_SEERead
		_SEEWrite
		_ee_test
 This function uses a non-reentrant model


 *************** function _EnableSlaveSPI *****************
 Defined at:
		line 7442 in file "D:\Users\MichaelZarling\Documents\Lobster\cs020_sw\Master_v1p226p34-XC8\EL04\main\master.c"
 Parameters:    Size  Location     Type
		None
 Auto vars:     Size  Location     Type
  c               1    0        unsigned char 
 Return value:  Size  Location     Type
		None               void
 Registers used:
		wreg, fsr2l, fsr2h, status,2, status,0, prodl, prodh, cstack
 Tracked objects:
		On entry : 
		On exit  : 
		Unchanged: 
 Data sizes:     COMRAM   BANK0   BANK1   BANK2   BANK3   BANK4   BANK5   BANK6   BANK7   BANK8   BANK9  BANK10  BANK11  BANK12  BANK13  BANK14  BANK15
      Params:         0       0       0       0       0       0       0       0       0       0       0       0       0       0       0       0       0
      Locals:         0       0       0       0       0       0       0       0       0       0       0       0       0       0       0       0       0
      Temps:          0       0       0       0       0       0       0       0       0       0       0       0       0       0       0       0       0
      Totals:         0       0       0       0       0       0       0       0       0       0       0       0       0       0       0       0       0
Total ram usage:        0 bytes
 Hardware stack levels used:    1
 Hardware stack levels required when called:    5
 This function calls:
		_BuildCmd
		_ChipDeSelect
		_ChipSelect
		_Delay1KTCYx
		_ReadSPI1
 This function is called by:
		_ee_test
		_lob_test
		_load_prog
		_save_prog
 This function uses a non-reentrant model


 *************** function _DisableSlaveSPI *****************
 Defined at:
		line 7421 in file "D:\Users\MichaelZarling\Documents\Lobster\cs020_sw\Master_v1p226p34-XC8\EL04\main\master.c"
 Parameters:    Size  Location     Type
		None
 Auto vars:     Size  Location     Type
  c               1   23[BANK0 ] unsigned char 
  c1              1   22[BANK0 ] unsigned char 
 Return value:  Size  Location     Type
		None               void
 Registers used:
		wreg, fsr2l, fsr2h, status,2, status,0, prodl, prodh, cstack
 Tracked objects:
		On entry : 
		On exit  : 
		Unchanged: 
 Data sizes:     COMRAM   BANK0   BANK1   BANK2   BANK3   BANK4   BANK5   BANK6   BANK7   BANK8   BANK9  BANK10  BANK11  BANK12  BANK13  BANK14  BANK15
      Params:         0       0       0       0       0       0       0       0       0       0       0       0       0       0       0       0       0
      Locals:         0       2       0       0       0       0       0       0       0       0       0       0       0       0       0       0       0
      Temps:          0       0       0       0       0       0       0       0       0       0       0       0       0       0       0       0       0
      Totals:         0       2       0       0       0       0       0       0       0       0       0       0       0       0       0       0       0
Total ram usage:        2 bytes
 Hardware stack levels used:    1
 Hardware stack levels required when called:    5
 This function calls:
		_BuildCmd
		_ChipDeSelect
		_ChipSelect
		_Delay1KTCYx
		_ReadSPI1
		_putrsDIAG
 This function is called by:
		_ee_test
		_lob_test
		_load_prog
		_save_prog
 This function uses a non-reentrant model


 *************** function _CheckBattery *****************
 Defined at:
		line 8862 in file "D:\Users\MichaelZarling\Documents\Lobster\cs020_sw\Master_v1p226p34-XC8\EL04\main\master.c"
 Parameters:    Size  Location     Type
  val             2   26[BANK0 ] unsigned int 
 Auto vars:     Size  Location     Type
		None
 Return value:  Size  Location     Type
		None               void
 Registers used:
		wreg, fsr2l, fsr2h, status,2, status,0, prodl, prodh, cstack
 Tracked objects:
		On entry : 
		On exit  : 
		Unchanged: 
 Data sizes:     COMRAM   BANK0   BANK1   BANK2   BANK3   BANK4   BANK5   BANK6   BANK7   BANK8   BANK9  BANK10  BANK11  BANK12  BANK13  BANK14  BANK15
      Params:         0       2       0       0       0       0       0       0       0       0       0       0       0       0       0       0       0
      Locals:         0       0       0       0       0       0       0       0       0       0       0       0       0       0       0       0       0
      Temps:          0       2       0       0       0       0       0       0       0       0       0       0       0       0       0       0       0
      Totals:         0       4       0       0       0       0       0       0       0       0       0       0       0       0       0       0       0
Total ram usage:        4 bytes
 Hardware stack levels used:    1
 Hardware stack levels required when called:    8
 This function calls:
		_stop_all
 This function is called by:
		_main
 This function uses a non-reentrant model


 *************** function _StopTopMtr *****************
 Defined at:
		line 7838 in file "D:\Users\MichaelZarling\Documents\Lobster\cs020_sw\Master_v1p226p34-XC8\EL04\main\master.c"
 Parameters:    Size  Location     Type
		None
 Auto vars:     Size  Location     Type
  ptr             1    8[BANK0 ] PTR unsigned int 
		 -> top_stat(2), 
 Return value:  Size  Location     Type
		None               void
 Registers used:
		wreg, fsr2l, fsr2h, status,2, status,0, cstack
 Tracked objects:
		On entry : 
		On exit  : 
		Unchanged: 
 Data sizes:     COMRAM   BANK0   BANK1   BANK2   BANK3   BANK4   BANK5   BANK6   BANK7   BANK8   BANK9  BANK10  BANK11  BANK12  BANK13  BANK14  BANK15
      Params:         0       0       0       0       0       0       0       0       0       0       0       0       0       0       0       0       0
      Locals:         0       1       0       0       0       0       0       0       0       0       0       0       0       0       0       0       0
      Temps:          0       2       0       0       0       0       0       0       0       0       0       0       0       0       0       0       0
      Totals:         0       3       0       0       0       0       0       0       0       0       0       0       0       0       0       0       0
Total ram usage:        3 bytes
 Hardware stack levels used:    1
 Hardware stack levels required when called:    4
 This function calls:
		_SetDCPWM4
 This function is called by:
		_SvcShots
		_top_diag
		_stop_all
 This function uses a non-reentrant model


 *************** function _SetDCPWM4 *****************
 Defined at:
		line 17 in file "C:\Program Files (x86)\Microchip\xc8\v1.33\sources\pic18\plib\PWM\pw4setdc.c"
 Parameters:    Size  Location     Type
  dutycycle       2    0[BANK0 ] unsigned int 
 Auto vars:     Size  Location     Type
  DCycle          2    4[BANK0 ] struct PWMDC
 Return value:  Size  Location     Type
		None               void
 Registers used:
		wreg, status,2, status,0
 Tracked objects:
		On entry : 
		On exit  : 
		Unchanged: 
 Data sizes:     COMRAM   BANK0   BANK1   BANK2   BANK3   BANK4   BANK5   BANK6   BANK7   BANK8   BANK9  BANK10  BANK11  BANK12  BANK13  BANK14  BANK15
      Params:         0       2       0       0       0       0       0       0       0       0       0       0       0       0       0       0       0
      Locals:         0       2       0       0       0       0       0       0       0       0       0       0       0       0       0       0       0
      Temps:          0       2       0       0       0       0       0       0       0       0       0       0       0       0       0       0       0
      Totals:         0       6       0       0       0       0       0       0       0       0       0       0       0       0       0       0       0
Total ram usage:        6 bytes
 Hardware stack levels used:    1
 Hardware stack levels required when called:    3
 This function calls:
		Nothing
 This function is called by:
		_SetTopPwm
		_Setup
		_StopTopMtr
 This function uses a non-reentrant model


 *************** function _StopFeedMtr *****************
 Defined at:
		line 7813 in file "D:\Users\MichaelZarling\Documents\Lobster\cs020_sw\Master_v1p226p34-XC8\EL04\main\master.c"
 Parameters:    Size  Location     Type
		None
 Auto vars:     Size  Location     Type
  ptr             1    8[BANK0 ] PTR unsigned int 
		 -> feed_stat(2), 
 Return value:  Size  Location     Type
		None               void
 Registers used:
		wreg, fsr2l, fsr2h, status,2, status,0, cstack
 Tracked objects:
		On entry : 
		On exit  : 
		Unchanged: 
 Data sizes:     COMRAM   BANK0   BANK1   BANK2   BANK3   BANK4   BANK5   BANK6   BANK7   BANK8   BANK9  BANK10  BANK11  BANK12  BANK13  BANK14  BANK15
      Params:         0       0       0       0       0       0       0       0       0       0       0       0       0       0       0       0       0
      Locals:         0       1       0       0       0       0       0       0       0       0       0       0       0       0       0       0       0
      Temps:          0       2       0       0       0       0       0       0       0       0       0       0       0       0       0       0       0
      Totals:         0       3       0       0       0       0       0       0       0       0       0       0       0       0       0       0       0
Total ram usage:        3 bytes
 Hardware stack levels used:    1
 Hardware stack levels required when called:    4
 This function calls:
		_SetDCPWM3
 This function is called by:
		_SvcShots
		_abort_shot
		_feed_diag
		_stop_all
		_lob_idle
 This function uses a non-reentrant model


 *************** function _SetDCPWM3 *****************
 Defined at:
		line 16 in file "C:\Program Files (x86)\Microchip\xc8\v1.33\sources\pic18\plib\PWM\pw3setdc.c"
 Parameters:    Size  Location     Type
  dutycycle       2    0[BANK0 ] unsigned int 
 Auto vars:     Size  Location     Type
  DCycle          2    4[BANK0 ] struct PWMDC
 Return value:  Size  Location     Type
		None               void
 Registers used:
		wreg, status,2, status,0
 Tracked objects:
		On entry : 
		On exit  : 
		Unchanged: 
 Data sizes:     COMRAM   BANK0   BANK1   BANK2   BANK3   BANK4   BANK5   BANK6   BANK7   BANK8   BANK9  BANK10  BANK11  BANK12  BANK13  BANK14  BANK15
      Params:         0       2       0       0       0       0       0       0       0       0       0       0       0       0       0       0       0
      Locals:         0       2       0       0       0       0       0       0       0       0       0       0       0       0       0       0       0
      Temps:          0       2       0       0       0       0       0       0       0       0       0       0       0       0       0       0       0
      Totals:         0       6       0       0       0       0       0       0       0       0       0       0       0       0       0       0       0
Total ram usage:        6 bytes
 Hardware stack levels used:    1
 Hardware stack levels required when called:    3
 This function calls:
		Nothing
 This function is called by:
		_SetFeedPwm
		_Setup
		_SlowFeedMtr
		_FeedMtrDone
		_StopFeedMtr
 This function uses a non-reentrant model


 *************** function _StopBotMtr *****************
 Defined at:
		line 7848 in file "D:\Users\MichaelZarling\Documents\Lobster\cs020_sw\Master_v1p226p34-XC8\EL04\main\master.c"
 Parameters:    Size  Location     Type
		None
 Auto vars:     Size  Location     Type
  ptr             1    8[BANK0 ] PTR unsigned int 
		 -> bot_stat(2), 
 Return value:  Size  Location     Type
		None               void
 Registers used:
		wreg, fsr2l, fsr2h, status,2, status,0, cstack
 Tracked objects:
		On entry : 
		On exit  : 
		Unchanged: 
 Data sizes:     COMRAM   BANK0   BANK1   BANK2   BANK3   BANK4   BANK5   BANK6   BANK7   BANK8   BANK9  BANK10  BANK11  BANK12  BANK13  BANK14  BANK15
      Params:         0       0       0       0       0       0       0       0       0       0       0       0       0       0       0       0       0
      Locals:         0       1       0       0       0       0       0       0       0       0       0       0       0       0       0       0       0
      Temps:          0       2       0       0       0       0       0       0       0       0       0       0       0       0       0       0       0
      Totals:         0       3       0       0       0       0       0       0       0       0       0       0       0       0       0       0       0
Total ram usage:        3 bytes
 Hardware stack levels used:    1
 Hardware stack levels required when called:    4
 This function calls:
		_SetDCPWM5
 This function is called by:
		_SvcShots
		_bot_diag
		_stop_all
 This function uses a non-reentrant model


 *************** function _SetDCPWM5 *****************
 Defined at:
		line 15 in file "C:\Program Files (x86)\Microchip\xc8\v1.33\sources\pic18\plib\PWM\pw5setdc.c"
 Parameters:    Size  Location     Type
  dutycycle       2    0[BANK0 ] unsigned int 
 Auto vars:     Size  Location     Type
  DCycle          2    4[BANK0 ] struct PWMDC
 Return value:  Size  Location     Type
		None               void
 Registers used:
		wreg, status,2, status,0
 Tracked objects:
		On entry : 
		On exit  : 
		Unchanged: 
 Data sizes:     COMRAM   BANK0   BANK1   BANK2   BANK3   BANK4   BANK5   BANK6   BANK7   BANK8   BANK9  BANK10  BANK11  BANK12  BANK13  BANK14  BANK15
      Params:         0       2       0       0       0       0       0       0       0       0       0       0       0       0       0       0       0
      Locals:         0       2       0       0       0       0       0       0       0       0       0       0       0       0       0       0       0
      Temps:          0       2       0       0       0       0       0       0       0       0       0       0       0       0       0       0       0
      Totals:         0       6       0       0       0       0       0       0       0       0       0       0       0       0       0       0       0
Total ram usage:        6 bytes
 Hardware stack levels used:    1
 Hardware stack levels required when called:    3
 This function calls:
		Nothing
 This function is called by:
		_SetBotPwm
		_Setup
		_StopBotMtr
 This function uses a non-reentrant model


 *************** function _StopBidirMtrs *****************
 Defined at:
		line 7858 in file "D:\Users\MichaelZarling\Documents\Lobster\cs020_sw\Master_v1p226p34-XC8\EL04\main\master.c"
 Parameters:    Size  Location     Type
		None
 Auto vars:     Size  Location     Type
		None
 Return value:  Size  Location     Type
		None               void
 Registers used:
		wreg, fsr2l, fsr2h, status,2, status,0, prodl, prodh, cstack
 Tracked objects:
		On entry : 
		On exit  : 
		Unchanged: 
 Data sizes:     COMRAM   BANK0   BANK1   BANK2   BANK3   BANK4   BANK5   BANK6   BANK7   BANK8   BANK9  BANK10  BANK11  BANK12  BANK13  BANK14  BANK15
      Params:         0       0       0       0       0       0       0       0       0       0       0       0       0       0       0       0       0
      Locals:         0       0       0       0       0       0       0       0       0       0       0       0       0       0       0       0       0
      Temps:          0       0       0       0       0       0       0       0       0       0       0       0       0       0       0       0       0
      Totals:         0       0       0       0       0       0       0       0       0       0       0       0       0       0       0       0       0
Total ram usage:        0 bytes
 Hardware stack levels used:    1
 Hardware stack levels required when called:    6
 This function calls:
		_slavecmd
 This function is called by:
		_abort_shot
		_stop_all
 This function uses a non-reentrant model


 *************** function _BuildCmd *****************
 Defined at:
		line 8630 in file "D:\Users\MichaelZarling\Documents\Lobster\cs020_sw\Master_v1p226p34-XC8\EL04\main\master.c"
 Parameters:    Size  Location     Type
  code            2    4[BANK0 ] int 
  cnt             2    6[BANK0 ] int 
  args            2    8[BANK0 ] PTR long 
		 -> lob_manual@arg(4), StartElevRandom@arg(8), StartSweepRandom@arg(8), exec_diag@argary(32), 
		 -> tmp(4), PlayModeBlink(4), NULL(0), main@sweep_offset(4), 
		 -> main@tmp5(4), SvcShots@arg(4), play_mode(4), 
 Auto vars:     Size  Location     Type
  val             4   13[BANK0 ] unsigned long 
  i               2   20[BANK0 ] int 
  cptr            2   17[BANK0 ] PTR unsigned char 
		 -> SlaveCmd(32), 
  checksum        1   19[BANK0 ] unsigned char 
  c               1    0        unsigned char 
 Return value:  Size  Location     Type
		None               void
 Registers used:
		wreg, fsr2l, fsr2h, status,2, status,0, prodl, prodh, cstack
 Tracked objects:
		On entry : 
		On exit  : 
		Unchanged: 
 Data sizes:     COMRAM   BANK0   BANK1   BANK2   BANK3   BANK4   BANK5   BANK6   BANK7   BANK8   BANK9  BANK10  BANK11  BANK12  BANK13  BANK14  BANK15
      Params:         0       6       0       0       0       0       0       0       0       0       0       0       0       0       0       0       0
      Locals:         0       9       0       0       0       0       0       0       0       0       0       0       0       0       0       0       0
      Temps:          0       3       0       0       0       0       0       0       0       0       0       0       0       0       0       0       0
      Totals:         0      18       0       0       0       0       0       0       0       0       0       0       0       0       0       0       0
Total ram usage:       18 bytes
 Hardware stack levels used:    1
 Hardware stack levels required when called:    4
 This function calls:
		_ChipDeSelect
		_ChipSelect
		_Delay1KTCYx
		_ReadSPI1
		_WriteSPI1
 This function is called by:
		_SvcShots
		_main
		_DisableSlaveSPI
		_EnableSlaveSPI
		_CurShot_diag
		_slavecmd
		_lob_idle
		_lob_manual
		_lob_play
		_lob_test
		_lobmain
		_lob_program
		_lob_preset
 This function uses a non-reentrant model


 *************** function _WriteSPI1 *****************
 Defined at:
		line 13 in file "C:\Program Files (x86)\Microchip\xc8\v1.33\sources\pic18\plib\SPI\spi1writ.c"
 Parameters:    Size  Location     Type
  data_out        1    wreg     unsigned char 
 Auto vars:     Size  Location     Type
  data_out        1    0[BANK0 ] unsigned char 
  TempVar         1    0        unsigned char 
 Return value:  Size  Location     Type
                  1    wreg      char 
 Registers used:
		wreg
 Tracked objects:
		On entry : 
		On exit  : 
		Unchanged: 
 Data sizes:     COMRAM   BANK0   BANK1   BANK2   BANK3   BANK4   BANK5   BANK6   BANK7   BANK8   BANK9  BANK10  BANK11  BANK12  BANK13  BANK14  BANK15
      Params:         0       0       0       0       0       0       0       0       0       0       0       0       0       0       0       0       0
      Locals:         0       1       0       0       0       0       0       0       0       0       0       0       0       0       0       0       0
      Temps:          0       0       0       0       0       0       0       0       0       0       0       0       0       0       0       0       0
      Totals:         0       1       0       0       0       0       0       0       0       0       0       0       0       0       0       0       0
Total ram usage:        1 bytes
 Hardware stack levels used:    1
 Hardware stack levels required when called:    3
 This function calls:
		Nothing
 This function is called by:
		_spitest
		_SEERead
		_SEEWrite
		_ee_test
		_PgaGain
		_BuildCmd
		_set_intensity
 This function uses a non-reentrant model


 *************** function _ReadSPI1 *****************
 Defined at:
		line 12 in file "C:\Program Files (x86)\Microchip\xc8\v1.33\sources\pic18\plib\SPI\spi1read.c"
 Parameters:    Size  Location     Type
		None
 Auto vars:     Size  Location     Type
  TempVar         1    0        unsigned char 
 Return value:  Size  Location     Type
                  1    wreg      unsigned char 
 Registers used:
		wreg, status,2
 Tracked objects:
		On entry : 
		On exit  : 
		Unchanged: 
 Data sizes:     COMRAM   BANK0   BANK1   BANK2   BANK3   BANK4   BANK5   BANK6   BANK7   BANK8   BANK9  BANK10  BANK11  BANK12  BANK13  BANK14  BANK15
      Params:         0       0       0       0       0       0       0       0       0       0       0       0       0       0       0       0       0
      Locals:         0       0       0       0       0       0       0       0       0       0       0       0       0       0       0       0       0
      Temps:          0       0       0       0       0       0       0       0       0       0       0       0       0       0       0       0       0
      Totals:         0       0       0       0       0       0       0       0       0       0       0       0       0       0       0       0       0
Total ram usage:        0 bytes
 Hardware stack levels used:    1
 Hardware stack levels required when called:    3
 This function calls:
		Nothing
 This function is called by:
		_main
		_spitest
		_DisableSlaveSPI
		_EnableSlaveSPI
		_SEERead
		_SEEWrite
		_ee_test
		_BuildCmd
 This function uses a non-reentrant model


 *************** function _Delay1KTCYx *****************
 Defined at:
		line 8 in file "C:\Program Files (x86)\Microchip\xc8\v1.33\sources\pic18\d1ktcyx.c"
 Parameters:    Size  Location     Type
  unit            1    wreg     unsigned char 
 Auto vars:     Size  Location     Type
  unit            1    0[BANK0 ] unsigned char 
 Return value:  Size  Location     Type
		None               void
 Registers used:
		wreg
 Tracked objects:
		On entry : 
		On exit  : 
		Unchanged: 
 Data sizes:     COMRAM   BANK0   BANK1   BANK2   BANK3   BANK4   BANK5   BANK6   BANK7   BANK8   BANK9  BANK10  BANK11  BANK12  BANK13  BANK14  BANK15
      Params:         0       0       0       0       0       0       0       0       0       0       0       0       0       0       0       0       0
      Locals:         0       1       0       0       0       0       0       0       0       0       0       0       0       0       0       0       0
      Temps:          0       0       0       0       0       0       0       0       0       0       0       0       0       0       0       0       0
      Totals:         0       1       0       0       0       0       0       0       0       0       0       0       0       0       0       0       0
Total ram usage:        1 bytes
 Hardware stack levels used:    1
 Hardware stack levels required when called:    3
 This function calls:
		Nothing
 This function is called by:
		_DelayPORXLCD
		_Setup
		_main
		_DisableSlaveSPI
		_EnableSlaveSPI
		_SEEWrite
		_ee_test
		_BuildCmd
		_lob_manual
 This function uses a non-reentrant model


 *************** function _ChipSelect *****************
 Defined at:
		line 7699 in file "D:\Users\MichaelZarling\Documents\Lobster\cs020_sw\Master_v1p226p34-XC8\EL04\main\master.c"
 Parameters:    Size  Location     Type
  dev             2    0[BANK0 ] int 
 Auto vars:     Size  Location     Type
		None
 Return value:  Size  Location     Type
		None               void
 Registers used:
		wreg, status,2, status,0
 Tracked objects:
		On entry : 
		On exit  : 
		Unchanged: 
 Data sizes:     COMRAM   BANK0   BANK1   BANK2   BANK3   BANK4   BANK5   BANK6   BANK7   BANK8   BANK9  BANK10  BANK11  BANK12  BANK13  BANK14  BANK15
      Params:         0       2       0       0       0       0       0       0       0       0       0       0       0       0       0       0       0
      Locals:         0       0       0       0       0       0       0       0       0       0       0       0       0       0       0       0       0
      Temps:          0       2       0       0       0       0       0       0       0       0       0       0       0       0       0       0       0
      Totals:         0       4       0       0       0       0       0       0       0       0       0       0       0       0       0       0       0
Total ram usage:        4 bytes
 Hardware stack levels used:    1
 Hardware stack levels required when called:    3
 This function calls:
		Nothing
 This function is called by:
		_main
		_spitest
		_DisableSlaveSPI
		_EnableSlaveSPI
		_chip_select
		_PgaGain
		_BuildCmd
		_set_intensity
 This function uses a non-reentrant model


 *************** function _ChipDeSelect *****************
 Defined at:
		line 7676 in file "D:\Users\MichaelZarling\Documents\Lobster\cs020_sw\Master_v1p226p34-XC8\EL04\main\master.c"
 Parameters:    Size  Location     Type
  dev             2    0[BANK0 ] int 
 Auto vars:     Size  Location     Type
		None
 Return value:  Size  Location     Type
		None               void
 Registers used:
		wreg, status,2, status,0
 Tracked objects:
		On entry : 
		On exit  : 
		Unchanged: 
 Data sizes:     COMRAM   BANK0   BANK1   BANK2   BANK3   BANK4   BANK5   BANK6   BANK7   BANK8   BANK9  BANK10  BANK11  BANK12  BANK13  BANK14  BANK15
      Params:         0       2       0       0       0       0       0       0       0       0       0       0       0       0       0       0       0
      Locals:         0       0       0       0       0       0       0       0       0       0       0       0       0       0       0       0       0
      Temps:          0       2       0       0       0       0       0       0       0       0       0       0       0       0       0       0       0
      Totals:         0       4       0       0       0       0       0       0       0       0       0       0       0       0       0       0       0
Total ram usage:        4 bytes
 Hardware stack levels used:    1
 Hardware stack levels required when called:    3
 This function calls:
		Nothing
 This function is called by:
		_main
		_spitest
		_DisableSlaveSPI
		_EnableSlaveSPI
		_SEERead
		_SEEWrite
		_ee_test
		_PgaGain
		_BuildCmd
		_set_intensity
 This function uses a non-reentrant model


 *************** function _CalcTopPwm *****************
 Defined at:
		line 1349 in file "D:\Users\MichaelZarling\Documents\Lobster\cs020_sw\Master_v1p226p34-XC8\EL04\main\master.c"
 Parameters:    Size  Location     Type
		None
 Auto vars:     Size  Location     Type
  drift           2   35[BANK0 ] unsigned int 
  delta           2   33[BANK0 ] int 
  abs_delta1      2   31[BANK0 ] unsigned int 
  incr            2   29[BANK0 ] int 
  abs_delta       2   27[BANK0 ] unsigned int 
  drift1          2   25[BANK0 ] unsigned int 
  SpdDir          2   23[BANK0 ] int 
  rtop_last_de    2   21[BANK0 ] int 
  TooFast         2   19[BANK0 ] int 
  ix              2   17[BANK0 ] unsigned int 
  rtop_last_de    2   15[BANK0 ] int 
 Return value:  Size  Location     Type
		None               void
 Registers used:
		wreg, fsr2l, fsr2h, status,2, status,0
 Tracked objects:
		On entry : 
		On exit  : 
		Unchanged: 
 Data sizes:     COMRAM   BANK0   BANK1   BANK2   BANK3   BANK4   BANK5   BANK6   BANK7   BANK8   BANK9  BANK10  BANK11  BANK12  BANK13  BANK14  BANK15
      Params:         0       0       0       0       0       0       0       0       0       0       0       0       0       0       0       0       0
      Locals:         0      32       0       0       0       0       0       0       0       0       0       0       0       0       0       0       0
      Temps:          0       5       0       0       0       0       0       0       0       0       0       0       0       0       0       0       0
      Totals:         0      37       0       0       0       0       0       0       0       0       0       0       0       0       0       0       0
Total ram usage:       37 bytes
 Hardware stack levels used:    1
 Hardware stack levels required when called:    3
 This function calls:
		Nothing
 This function is called by:
		_main
 This function uses a non-reentrant model


 *************** function _CalcBotPwm *****************
 Defined at:
		line 1873 in file "D:\Users\MichaelZarling\Documents\Lobster\cs020_sw\Master_v1p226p34-XC8\EL04\main\master.c"
 Parameters:    Size  Location     Type
		None
 Auto vars:     Size  Location     Type
  drift           2   38[BANK0 ] unsigned int 
  delta           2   36[BANK0 ] int 
  abs_delta1      2   34[BANK0 ] unsigned int 
  incr            2   32[BANK0 ] int 
  abs_delta       2   30[BANK0 ] unsigned int 
  drift1          2   28[BANK0 ] unsigned int 
  SpdDir          2   26[BANK0 ] int 
  rbot_last_de    2   24[BANK0 ] int 
  TooFast         2   22[BANK0 ] int 
  ix              2   20[BANK0 ] unsigned int 
  rbot_last_de    2   18[BANK0 ] int 
 Return value:  Size  Location     Type
		None               void
 Registers used:
		wreg, fsr2l, fsr2h, status,2, status,0, cstack
 Tracked objects:
		On entry : 
		On exit  : 
		Unchanged: 
 Data sizes:     COMRAM   BANK0   BANK1   BANK2   BANK3   BANK4   BANK5   BANK6   BANK7   BANK8   BANK9  BANK10  BANK11  BANK12  BANK13  BANK14  BANK15
      Params:         0       0       0       0       0       0       0       0       0       0       0       0       0       0       0       0       0
      Locals:         0      32       0       0       0       0       0       0       0       0       0       0       0       0       0       0       0
      Temps:          0       5       0       0       0       0       0       0       0       0       0       0       0       0       0       0       0
      Totals:         0      37       0       0       0       0       0       0       0       0       0       0       0       0       0       0       0
Total ram usage:       37 bytes
 Hardware stack levels used:    1
 Hardware stack levels required when called:    4
 This function calls:
		_putrsDIAG
 This function is called by:
		_main
 This function uses a non-reentrant model


 *************** function _putrsDIAG *****************
 Defined at:
		line 33 in file "D:\Users\MichaelZarling\Documents\Lobster\cs020_sw\Master_v1p226p34-XC8\EL04\main\diag.c"
 Parameters:    Size  Location     Type
  data            3    0[BANK0 ] PTR const unsigned char 
		 -> STR_442(10), STR_441(10), STR_343(15), STR_342(2), 
		 -> STR_341(4), STR_340(2), STR_339(2), STR_338(7), 
		 -> STR_337(2), STR_336(9), STR_335(6), STR_334(5), 
		 -> STR_333(7), STR_332(7), STR_331(13), STR_323(4), 
		 -> STR_322(12), STR_317(2), STR_316(2), STR_313(11), 
		 -> STR_292(21), STR_291(15), STR_290(15), STR_289(16), 
		 -> STR_288(17), STR_287(19), STR_286(8), STR_285(5), 
		 -> STR_284(26), STR_283(17), STR_259(17), STR_258(11), 
		 -> STR_257(21), STR_256(16), STR_255(32), STR_254(22), 
		 -> STR_253(27), STR_252(15), STR_251(19), STR_250(27), 
		 -> STR_249(18), STR_248(22), STR_247(17), STR_246(15), 
		 -> STR_245(15), STR_244(19), STR_243(4), STR_242(3), 
		 -> STR_241(14), STR_240(3), STR_239(15), STR_238(3), 
		 -> STR_237(19), STR_236(3), STR_235(17), STR_234(3), 
		 -> STR_233(21), STR_232(3), STR_231(17), STR_230(3), 
		 -> STR_229(22), STR_228(3), STR_227(22), STR_226(3), 
		 -> STR_225(17), STR_224(3), STR_223(20), STR_222(3), 
		 -> STR_221(24), STR_220(3), STR_219(16), STR_218(3), 
		 -> STR_217(12), STR_216(9), STR_215(8), STR_214(19), 
		 -> STR_213(3), STR_212(9), STR_211(12), STR_210(14), 
		 -> STR_209(12), STR_208(14), STR_207(12), STR_206(13), 
		 -> STR_205(12), STR_204(13), STR_203(10), STR_202(14), 
		 -> STR_201(3), STR_200(5), STR_199(4), STR_198(11), 
		 -> STR_197(4), STR_196(10), STR_195(31), STR_194(3), 
		 -> STR_193(9), STR_192(12), STR_191(45), STR_190(12), 
		 -> STR_189(34), STR_188(12), STR_187(34), STR_186(5), 
		 -> STR_185(9), STR_184(33), STR_183(3), STR_182(5), 
		 -> STR_181(19), STR_180(19), STR_179(27), STR_178(15), 
		 -> STR_177(27), STR_176(19), STR_175(8), STR_174(17), 
		 -> STR_173(8), ROM(131071), STR_160(8), space(2), 
		 -> STR_159(3), STR_158(10), STR_157(13), STR_156(8), 
		 -> STR_155(10), STR_154(10), STR_153(9), STR_152(9), 
		 -> STR_151(10), STR_150(15), STR_149(16), STR_148(13), 
		 -> STR_147(15), STR_146(17), STR_145(15), STR_144(12), 
		 -> STR_143(13), STR_142(5), STR_141(20), crlf(3), 
		 -> ready(9), InvCmd(19), STR_140(32), STR_139(24), 
		 -> STR_36(24), STR_35(20), STR_34(21), STR_33(18), 
		 -> STR_32(21), STR_31(3), STR_28(17), STR_25(17), 
		 -> STR_22(17), STR_19(17), STR_16(17), STR_13(17), 
		 -> STR_12(18), STR_11(22), STR_10(13), STR_9(16), 
		 -> STR_8(9), STR_7(21), STR_6(18), STR_5(18), 
		 -> STR_4(4), STR_3(32), STR_2(32), STR_1(30), 
 Auto vars:     Size  Location     Type
		None
 Return value:  Size  Location     Type
		None               void
 Registers used:
		None
 Tracked objects:
		On entry : 
		On exit  : 
		Unchanged: 
 Data sizes:     COMRAM   BANK0   BANK1   BANK2   BANK3   BANK4   BANK5   BANK6   BANK7   BANK8   BANK9  BANK10  BANK11  BANK12  BANK13  BANK14  BANK15
      Params:         0       3       0       0       0       0       0       0       0       0       0       0       0       0       0       0       0
      Locals:         0       0       0       0       0       0       0       0       0       0       0       0       0       0       0       0       0
      Temps:          0       0       0       0       0       0       0       0       0       0       0       0       0       0       0       0       0
      Totals:         0       3       0       0       0       0       0       0       0       0       0       0       0       0       0       0       0
Total ram usage:        3 bytes
 Hardware stack levels used:    1
 Hardware stack levels required when called:    3
 This function calls:
		Nothing
 This function is called by:
		_UpdTopPer
		_CalcBotPwm
		_SvcShots
		_main
		_debounced_remote
		_debounced_remote_USART2
		_exec_diag
		_dumpmem
		_spitest
		_DisableSlaveSPI
		_ee_test
		_abort_shot
		_StartFeed
		_StartFeedAtSpd
		_SetFeedImm
		_StartFeedCont
		_feed_diag
		_top_diag
		_kbdiag
		_lob_manual
		_check_limits
		_lob_play
		_lob_test
		_load_prog
		_show_prog1
		_show_prog3
		_lob_program
		_lob_preset
 This function uses a non-reentrant model


 *************** function _BatteryAverage *****************
 Defined at:
		line 8885 in file "D:\Users\MichaelZarling\Documents\Lobster\cs020_sw\Master_v1p226p34-XC8\EL04\main\master.c"
 Parameters:    Size  Location     Type
  val             2    7[BANK0 ] unsigned int 
 Auto vars:     Size  Location     Type
  i               2   21[BANK0 ] int 
  BatAvgVal       2   19[BANK0 ] unsigned int 
  j               2   17[BANK0 ] int 
  maxVal          2   15[BANK0 ] unsigned int 
  minVal          2   13[BANK0 ] unsigned int 
 Return value:  Size  Location     Type
                  2    7[BANK0 ] unsigned int 
 Registers used:
		wreg, fsr1l, fsr1h, fsr2l, fsr2h, status,2, status,0, prodl, prodh, cstack
 Tracked objects:
		On entry : 
		On exit  : 
		Unchanged: 
 Data sizes:     COMRAM   BANK0   BANK1   BANK2   BANK3   BANK4   BANK5   BANK6   BANK7   BANK8   BANK9  BANK10  BANK11  BANK12  BANK13  BANK14  BANK15
      Params:         0       2       0       0       0       0       0       0       0       0       0       0       0       0       0       0       0
      Locals:         0      10       0       0       0       0       0       0       0       0       0       0       0       0       0       0       0
      Temps:          0       4       0       0       0       0       0       0       0       0       0       0       0       0       0       0       0
      Totals:         0      16       0       0       0       0       0       0       0       0       0       0       0       0       0       0       0
Total ram usage:       16 bytes
 Hardware stack levels used:    1
 Hardware stack levels required when called:    4
 This function calls:
		___lwdiv
 This function is called by:
		_main
 This function uses a non-reentrant model


 *************** function ___lwdiv *****************
 Defined at:
		line 8 in file "C:\Program Files (x86)\Microchip\xc8\v1.33\sources\common\lwdiv.c"
 Parameters:    Size  Location     Type
  dividend        2    0[BANK0 ] unsigned int 
  divisor         2    2[BANK0 ] unsigned int 
 Auto vars:     Size  Location     Type
  quotient        2    5[BANK0 ] unsigned int 
  counter         1    4[BANK0 ] unsigned char 
 Return value:  Size  Location     Type
                  2    0[BANK0 ] unsigned int 
 Registers used:
		wreg, status,2, status,0
 Tracked objects:
		On entry : 
		On exit  : 
		Unchanged: 
 Data sizes:     COMRAM   BANK0   BANK1   BANK2   BANK3   BANK4   BANK5   BANK6   BANK7   BANK8   BANK9  BANK10  BANK11  BANK12  BANK13  BANK14  BANK15
      Params:         0       4       0       0       0       0       0       0       0       0       0       0       0       0       0       0       0
      Locals:         0       3       0       0       0       0       0       0       0       0       0       0       0       0       0       0       0
      Temps:          0       0       0       0       0       0       0       0       0       0       0       0       0       0       0       0       0
      Totals:         0       7       0       0       0       0       0       0       0       0       0       0       0       0       0       0       0
Total ram usage:        7 bytes
 Hardware stack levels used:    1
 Hardware stack levels required when called:    3
 This function calls:
		Nothing
 This function is called by:
		_BatteryAverage
		_lob_play
		_lob_test
		_utoa
 This function uses a non-reentrant model


 *************** function _isr *****************
 Defined at:
		line 1135 in file "D:\Users\MichaelZarling\Documents\Lobster\cs020_sw\Master_v1p226p34-XC8\EL04\main\master.c"
 Parameters:    Size  Location     Type
		None
 Auto vars:     Size  Location     Type
		None
 Return value:  Size  Location     Type
		None               void
 Registers used:
		wreg, fsr2l, fsr2h, status,2, status,0, tblptrl, tblptrh, tblptru, prodl, cstack
 Tracked objects:
		On entry : 
		On exit  : 
		Unchanged: 
 Data sizes:     COMRAM   BANK0   BANK1   BANK2   BANK3   BANK4   BANK5   BANK6   BANK7   BANK8   BANK9  BANK10  BANK11  BANK12  BANK13  BANK14  BANK15
      Params:         0       0       0       0       0       0       0       0       0       0       0       0       0       0       0       0       0
      Locals:         0       0       0       0       0       0       0       0       0       0       0       0       0       0       0       0       0
      Temps:          7       0       0       0       0       0       0       0       0       0       0       0       0       0       0       0       0
      Totals:         7       0       0       0       0       0       0       0       0       0       0       0       0       0       0       0       0
Total ram usage:        7 bytes
 Hardware stack levels used:    1
 Hardware stack levels required when called:    2
 This function calls:
		_ReadCapture1
		_ReadCapture2
		i2_DelayFor18TCY
		i2_PgaGain
		i2_SetBotPwm
		i2_SetFeedPwm
		i2_SetTopPwm
 This function is called by:
		Interrupt level 2
 This function uses a non-reentrant model


 *************** function i2_SetTopPwm *****************
 Defined at:
		line 1724 in file "D:\Users\MichaelZarling\Documents\Lobster\cs020_sw\Master_v1p226p34-XC8\EL04\main\master.c"
 Parameters:    Size  Location     Type
		None
 Auto vars:     Size  Location     Type
  SetTopPwm       2   23[COMRAM] int 
  SetTopPwm       2   21[COMRAM] int 
  SetTopPwm       2   19[COMRAM] int 
  SetTopPwm       2   17[COMRAM] unsigned int 
  SetTopPwm       2   15[COMRAM] unsigned int 
  SetTopPwm       2    0        unsigned int 
 Return value:  Size  Location     Type
		None               void
 Registers used:
		wreg, fsr2l, fsr2h, status,2, status,0, tblptrl, tblptrh, tblptru, prodl, cstack
 Tracked objects:
		On entry : 
		On exit  : 
		Unchanged: 
 Data sizes:     COMRAM   BANK0   BANK1   BANK2   BANK3   BANK4   BANK5   BANK6   BANK7   BANK8   BANK9  BANK10  BANK11  BANK12  BANK13  BANK14  BANK15
      Params:         0       0       0       0       0       0       0       0       0       0       0       0       0       0       0       0       0
      Locals:        10       0       0       0       0       0       0       0       0       0       0       0       0       0       0       0       0
      Temps:          9       0       0       0       0       0       0       0       0       0       0       0       0       0       0       0       0
      Totals:        19       0       0       0       0       0       0       0       0       0       0       0       0       0       0       0       0
Total ram usage:       19 bytes
 Hardware stack levels used:    1
 Hardware stack levels required when called:    1
 This function calls:
		i2_SetDCPWM4
 This function is called by:
		_isr
 This function uses a non-reentrant model


 *************** function i2_SetDCPWM4 *****************
 Defined at:
		line 17 in file "C:\Program Files (x86)\Microchip\xc8\v1.33\sources\pic18\plib\PWM\pw4setdc.c"
 Parameters:    Size  Location     Type
  dutycycle       2    0[COMRAM] unsigned int 
 Auto vars:     Size  Location     Type
  SetDCPWM4       2    4[COMRAM] struct PWMDC
 Return value:  Size  Location     Type
		None               void
 Registers used:
		wreg, status,2, status,0
 Tracked objects:
		On entry : 
		On exit  : 
		Unchanged: 
 Data sizes:     COMRAM   BANK0   BANK1   BANK2   BANK3   BANK4   BANK5   BANK6   BANK7   BANK8   BANK9  BANK10  BANK11  BANK12  BANK13  BANK14  BANK15
      Params:         2       0       0       0       0       0       0       0       0       0       0       0       0       0       0       0       0
      Locals:         2       0       0       0       0       0       0       0       0       0       0       0       0       0       0       0       0
      Temps:          2       0       0       0       0       0       0       0       0       0       0       0       0       0       0       0       0
      Totals:         6       0       0       0       0       0       0       0       0       0       0       0       0       0       0       0       0
Total ram usage:        6 bytes
 Hardware stack levels used:    1
 This function calls:
		Nothing
 This function is called by:
		i2_SetTopPwm
 This function uses a non-reentrant model


 *************** function i2_SetFeedPwm *****************
 Defined at:
		line 2396 in file "D:\Users\MichaelZarling\Documents\Lobster\cs020_sw\Master_v1p226p34-XC8\EL04\main\master.c"
 Parameters:    Size  Location     Type
		None
 Auto vars:     Size  Location     Type
  SetFeedPwm      2    0        unsigned int 
 Return value:  Size  Location     Type
		None               void
 Registers used:
		wreg, status,2, status,0, cstack
 Tracked objects:
		On entry : 
		On exit  : 
		Unchanged: 
 Data sizes:     COMRAM   BANK0   BANK1   BANK2   BANK3   BANK4   BANK5   BANK6   BANK7   BANK8   BANK9  BANK10  BANK11  BANK12  BANK13  BANK14  BANK15
      Params:         0       0       0       0       0       0       0       0       0       0       0       0       0       0       0       0       0
      Locals:         0       0       0       0       0       0       0       0       0       0       0       0       0       0       0       0       0
      Temps:          4       0       0       0       0       0       0       0       0       0       0       0       0       0       0       0       0
      Totals:         4       0       0       0       0       0       0       0       0       0       0       0       0       0       0       0       0
Total ram usage:        4 bytes
 Hardware stack levels used:    1
 Hardware stack levels required when called:    1
 This function calls:
		i2_SetDCPWM3
 This function is called by:
		_isr
 This function uses a non-reentrant model


 *************** function i2_SetDCPWM3 *****************
 Defined at:
		line 16 in file "C:\Program Files (x86)\Microchip\xc8\v1.33\sources\pic18\plib\PWM\pw3setdc.c"
 Parameters:    Size  Location     Type
  dutycycle       2    0[COMRAM] unsigned int 
 Auto vars:     Size  Location     Type
  SetDCPWM3       2    4[COMRAM] struct PWMDC
 Return value:  Size  Location     Type
		None               void
 Registers used:
		wreg, status,2, status,0
 Tracked objects:
		On entry : 
		On exit  : 
		Unchanged: 
 Data sizes:     COMRAM   BANK0   BANK1   BANK2   BANK3   BANK4   BANK5   BANK6   BANK7   BANK8   BANK9  BANK10  BANK11  BANK12  BANK13  BANK14  BANK15
      Params:         2       0       0       0       0       0       0       0       0       0       0       0       0       0       0       0       0
      Locals:         2       0       0       0       0       0       0       0       0       0       0       0       0       0       0       0       0
      Temps:          2       0       0       0       0       0       0       0       0       0       0       0       0       0       0       0       0
      Totals:         6       0       0       0       0       0       0       0       0       0       0       0       0       0       0       0       0
Total ram usage:        6 bytes
 Hardware stack levels used:    1
 This function calls:
		Nothing
 This function is called by:
		i2_SetFeedPwm
 This function uses a non-reentrant model


 *************** function i2_SetBotPwm *****************
 Defined at:
		line 2247 in file "D:\Users\MichaelZarling\Documents\Lobster\cs020_sw\Master_v1p226p34-XC8\EL04\main\master.c"
 Parameters:    Size  Location     Type
		None
 Auto vars:     Size  Location     Type
  SetBotPwm       2   23[COMRAM] int 
  SetBotPwm       2   21[COMRAM] int 
  SetBotPwm       2   19[COMRAM] int 
  SetBotPwm       2   17[COMRAM] unsigned int 
  SetBotPwm       2   15[COMRAM] unsigned int 
  SetBotPwm       2    0        unsigned int 
 Return value:  Size  Location     Type
		None               void
 Registers used:
		wreg, fsr2l, fsr2h, status,2, status,0, tblptrl, tblptrh, tblptru, prodl, cstack
 Tracked objects:
		On entry : 
		On exit  : 
		Unchanged: 
 Data sizes:     COMRAM   BANK0   BANK1   BANK2   BANK3   BANK4   BANK5   BANK6   BANK7   BANK8   BANK9  BANK10  BANK11  BANK12  BANK13  BANK14  BANK15
      Params:         0       0       0       0       0       0       0       0       0       0       0       0       0       0       0       0       0
      Locals:        10       0       0       0       0       0       0       0       0       0       0       0       0       0       0       0       0
      Temps:          9       0       0       0       0       0       0       0       0       0       0       0       0       0       0       0       0
      Totals:        19       0       0       0       0       0       0       0       0       0       0       0       0       0       0       0       0
Total ram usage:       19 bytes
 Hardware stack levels used:    1
 Hardware stack levels required when called:    1
 This function calls:
		i2_SetDCPWM5
 This function is called by:
		_isr
 This function uses a non-reentrant model


 *************** function i2_SetDCPWM5 *****************
 Defined at:
		line 15 in file "C:\Program Files (x86)\Microchip\xc8\v1.33\sources\pic18\plib\PWM\pw5setdc.c"
 Parameters:    Size  Location     Type
  dutycycle       2    0[COMRAM] unsigned int 
 Auto vars:     Size  Location     Type
  SetDCPWM5       2    4[COMRAM] struct PWMDC
 Return value:  Size  Location     Type
		None               void
 Registers used:
		wreg, status,2, status,0
 Tracked objects:
		On entry : 
		On exit  : 
		Unchanged: 
 Data sizes:     COMRAM   BANK0   BANK1   BANK2   BANK3   BANK4   BANK5   BANK6   BANK7   BANK8   BANK9  BANK10  BANK11  BANK12  BANK13  BANK14  BANK15
      Params:         2       0       0       0       0       0       0       0       0       0       0       0       0       0       0       0       0
      Locals:         2       0       0       0       0       0       0       0       0       0       0       0       0       0       0       0       0
      Temps:          2       0       0       0       0       0       0       0       0       0       0       0       0       0       0       0       0
      Totals:         6       0       0       0       0       0       0       0       0       0       0       0       0       0       0       0       0
Total ram usage:        6 bytes
 Hardware stack levels used:    1
 This function calls:
		Nothing
 This function is called by:
		i2_SetBotPwm
 This function uses a non-reentrant model


 *************** function i2_PgaGain *****************
 Defined at:
		line 7746 in file "D:\Users\MichaelZarling\Documents\Lobster\cs020_sw\Master_v1p226p34-XC8\EL04\main\master.c"
 Parameters:    Size  Location     Type
  chan            2    4[COMRAM] int 
  gain            1    6[COMRAM] unsigned char 
 Auto vars:     Size  Location     Type
		None
 Return value:  Size  Location     Type
		None               void
 Registers used:
		wreg, status,2, status,0, cstack
 Tracked objects:
		On entry : 
		On exit  : 
		Unchanged: 
 Data sizes:     COMRAM   BANK0   BANK1   BANK2   BANK3   BANK4   BANK5   BANK6   BANK7   BANK8   BANK9  BANK10  BANK11  BANK12  BANK13  BANK14  BANK15
      Params:         3       0       0       0       0       0       0       0       0       0       0       0       0       0       0       0       0
      Locals:         0       0       0       0       0       0       0       0       0       0       0       0       0       0       0       0       0
      Temps:          0       0       0       0       0       0       0       0       0       0       0       0       0       0       0       0       0
      Totals:         3       0       0       0       0       0       0       0       0       0       0       0       0       0       0       0       0
Total ram usage:        3 bytes
 Hardware stack levels used:    1
 Hardware stack levels required when called:    1
 This function calls:
		i2_ChipDeSelect
		i2_ChipSelect
		i2_WriteSPI1
 This function is called by:
		_isr
 This function uses a non-reentrant model


 *************** function i2_WriteSPI1 *****************
 Defined at:
		line 13 in file "C:\Program Files (x86)\Microchip\xc8\v1.33\sources\pic18\plib\SPI\spi1writ.c"
 Parameters:    Size  Location     Type
  data_out        1    wreg     unsigned char 
 Auto vars:     Size  Location     Type
  data_out        1    0[COMRAM] unsigned char 
  WriteSPI1       1    0        unsigned char 
 Return value:  Size  Location     Type
                  1    wreg      char 
 Registers used:
		wreg
 Tracked objects:
		On entry : 
		On exit  : 
		Unchanged: 
 Data sizes:     COMRAM   BANK0   BANK1   BANK2   BANK3   BANK4   BANK5   BANK6   BANK7   BANK8   BANK9  BANK10  BANK11  BANK12  BANK13  BANK14  BANK15
      Params:         0       0       0       0       0       0       0       0       0       0       0       0       0       0       0       0       0
      Locals:         1       0       0       0       0       0       0       0       0       0       0       0       0       0       0       0       0
      Temps:          0       0       0       0       0       0       0       0       0       0       0       0       0       0       0       0       0
      Totals:         1       0       0       0       0       0       0       0       0       0       0       0       0       0       0       0       0
Total ram usage:        1 bytes
 Hardware stack levels used:    1
 This function calls:
		Nothing
 This function is called by:
		i2_PgaGain
 This function uses a non-reentrant model


 *************** function i2_ChipSelect *****************
 Defined at:
		line 7699 in file "D:\Users\MichaelZarling\Documents\Lobster\cs020_sw\Master_v1p226p34-XC8\EL04\main\master.c"
 Parameters:    Size  Location     Type
  dev             2    0[COMRAM] int 
 Auto vars:     Size  Location     Type
		None
 Return value:  Size  Location     Type
		None               void
 Registers used:
		wreg, status,2, status,0
 Tracked objects:
		On entry : 
		On exit  : 
		Unchanged: 
 Data sizes:     COMRAM   BANK0   BANK1   BANK2   BANK3   BANK4   BANK5   BANK6   BANK7   BANK8   BANK9  BANK10  BANK11  BANK12  BANK13  BANK14  BANK15
      Params:         2       0       0       0       0       0       0       0       0       0       0       0       0       0       0       0       0
      Locals:         0       0       0       0       0       0       0       0       0       0       0       0       0       0       0       0       0
      Temps:          2       0       0       0       0       0       0       0       0       0       0       0       0       0       0       0       0
      Totals:         4       0       0       0       0       0       0       0       0       0       0       0       0       0       0       0       0
Total ram usage:        4 bytes
 Hardware stack levels used:    1
 This function calls:
		Nothing
 This function is called by:
		i2_PgaGain
 This function uses a non-reentrant model


 *************** function i2_ChipDeSelect *****************
 Defined at:
		line 7676 in file "D:\Users\MichaelZarling\Documents\Lobster\cs020_sw\Master_v1p226p34-XC8\EL04\main\master.c"
 Parameters:    Size  Location     Type
  dev             2    0[COMRAM] int 
 Auto vars:     Size  Location     Type
		None
 Return value:  Size  Location     Type
		None               void
 Registers used:
		wreg, status,2, status,0
 Tracked objects:
		On entry : 
		On exit  : 
		Unchanged: 
 Data sizes:     COMRAM   BANK0   BANK1   BANK2   BANK3   BANK4   BANK5   BANK6   BANK7   BANK8   BANK9  BANK10  BANK11  BANK12  BANK13  BANK14  BANK15
      Params:         2       0       0       0       0       0       0       0       0       0       0       0       0       0       0       0       0
      Locals:         0       0       0       0       0       0       0       0       0       0       0       0       0       0       0       0       0
      Temps:          2       0       0       0       0       0       0       0       0       0       0       0       0       0       0       0       0
      Totals:         4       0       0       0       0       0       0       0       0       0       0       0       0       0       0       0       0
Total ram usage:        4 bytes
 Hardware stack levels used:    1
 This function calls:
		Nothing
 This function is called by:
		i2_PgaGain
 This function uses a non-reentrant model


 *************** function i2_DelayFor18TCY *****************
 Defined at:
		line 723 in file "D:\Users\MichaelZarling\Documents\Lobster\cs020_sw\Master_v1p226p34-XC8\EL04\main\master.c"
 Parameters:    Size  Location     Type
		None
 Auto vars:     Size  Location     Type
		None
 Return value:  Size  Location     Type
		None               void
 Registers used:
		None
 Tracked objects:
		On entry : 
		On exit  : 
		Unchanged: 
 Data sizes:     COMRAM   BANK0   BANK1   BANK2   BANK3   BANK4   BANK5   BANK6   BANK7   BANK8   BANK9  BANK10  BANK11  BANK12  BANK13  BANK14  BANK15
      Params:         0       0       0       0       0       0       0       0       0       0       0       0       0       0       0       0       0
      Locals:         0       0       0       0       0       0       0       0       0       0       0       0       0       0       0       0       0
      Temps:          0       0       0       0       0       0       0       0       0       0       0       0       0       0       0       0       0
      Totals:         0       0       0       0       0       0       0       0       0       0       0       0       0       0       0       0       0
Total ram usage:        0 bytes
 Hardware stack levels used:    1
 This function calls:
		Nothing
 This function is called by:
		_isr
 This function uses a non-reentrant model


 *************** function _ReadCapture2 *****************
 Defined at:
		line 21 in file "C:\Program Files (x86)\Microchip\xc8\v1.33\sources\pic18\plib\CCP\cp2read.c"
 Parameters:    Size  Location     Type
		None
 Auto vars:     Size  Location     Type
  Cap             2    2[COMRAM] struct CapResult
 Return value:  Size  Location     Type
                  2    0[COMRAM] unsigned int 
 Registers used:
		wreg
 Tracked objects:
		On entry : 
		On exit  : 
		Unchanged: 
 Data sizes:     COMRAM   BANK0   BANK1   BANK2   BANK3   BANK4   BANK5   BANK6   BANK7   BANK8   BANK9  BANK10  BANK11  BANK12  BANK13  BANK14  BANK15
      Params:         2       0       0       0       0       0       0       0       0       0       0       0       0       0       0       0       0
      Locals:         2       0       0       0       0       0       0       0       0       0       0       0       0       0       0       0       0
      Temps:          0       0       0       0       0       0       0       0       0       0       0       0       0       0       0       0       0
      Totals:         4       0       0       0       0       0       0       0       0       0       0       0       0       0       0       0       0
Total ram usage:        4 bytes
 Hardware stack levels used:    1
 This function calls:
		Nothing
 This function is called by:
		_isr
 This function uses a non-reentrant model


 *************** function _ReadCapture1 *****************
 Defined at:
		line 23 in file "C:\Program Files (x86)\Microchip\xc8\v1.33\sources\pic18\plib\CCP\cp1read.c"
 Parameters:    Size  Location     Type
		None
 Auto vars:     Size  Location     Type
  Cap             2    2[COMRAM] struct CapResult
 Return value:  Size  Location     Type
                  2    0[COMRAM] unsigned int 
 Registers used:
		wreg
 Tracked objects:
		On entry : 
		On exit  : 
		Unchanged: 
 Data sizes:     COMRAM   BANK0   BANK1   BANK2   BANK3   BANK4   BANK5   BANK6   BANK7   BANK8   BANK9  BANK10  BANK11  BANK12  BANK13  BANK14  BANK15
      Params:         2       0       0       0       0       0       0       0       0       0       0       0       0       0       0       0       0
      Locals:         2       0       0       0       0       0       0       0       0       0       0       0       0       0       0       0       0
      Temps:          0       0       0       0       0       0       0       0       0       0       0       0       0       0       0       0       0
      Totals:         4       0       0       0       0       0       0       0       0       0       0       0       0       0       0       0       0
Total ram usage:        4 bytes
 Hardware stack levels used:    1
 This function calls:
		Nothing
 This function is called by:
		_isr
 This function uses a non-reentrant model



MODULE INFORMATION

Module		Function		Class		Link	Load	Size
C:\Program Files (x86)\Microchip\xc8\v1.33\sources\pic18\plib\PWM\pw4close.c
		_ClosePWM4     		CODE           	2026	0000	4

C:\Program Files (x86)\Microchip\xc8\v1.33\sources\pic18\plib\PWM\pw4close.c estimated size: 4

D:\Users\MichaelZarling\Documents\Lobster\cs020_sw\Master_v1p226p34-XC8\EL04\main\..\xlcd\busyxlcd.c
		_BusyXLCD      		CODE           	1DB0	0000	34

D:\Users\MichaelZarling\Documents\Lobster\cs020_sw\Master_v1p226p34-XC8\EL04\main\..\xlcd\busyxlcd.c estimated size: 34

C:\Program Files (x86)\Microchip\xc8\v1.33\sources\pic18\plib\USART\u2write.c
		_Write2USART   		CODE           	1EFA	0000	22

C:\Program Files (x86)\Microchip\xc8\v1.33\sources\pic18\plib\USART\u2write.c estimated size: 22

D:\Users\MichaelZarling\Documents\Lobster\cs020_sw\Master_v1p226p34-XC8\EL04\main\state_mach.c
		_sm_service    		CODE           	1FEF6	0000	172
		_sm_service_EL0		CODE           	1FE28	0000	172
		_sm_service_EL0		CODE           	1FD5A	0000	172

D:\Users\MichaelZarling\Documents\Lobster\cs020_sw\Master_v1p226p34-XC8\EL04\main\state_mach.c estimated size: 516

C:\Program Files (x86)\Microchip\xc8\v1.33\sources\pic18\plib\CCP\cp1open.c
		_OpenCapture1  		CODE           	1F50	0000	20

C:\Program Files (x86)\Microchip\xc8\v1.33\sources\pic18\plib\CCP\cp1open.c estimated size: 20

D:\Users\MichaelZarling\Documents\Lobster\cs020_sw\Master_v1p226p34-XC8\EL04\main\lobmain.c
		_lob_play      		CODE           	141CE	0000	5078
		_lob_sleep     		CODE           	2030	0000	2
		_build_curshot 		CODE           	1DD2E	0000	390
		_set_serve     		CODE           	1E39C	0000	350
		_serve_method  		CODE           	1EE68	0000	174
		_check_limits  		CODE           	1F5D6	0000	242
		_lobmain       		CODE           	1B43A	0000	1196
		_lob_idle      		CODE           	1CDB0	0000	538
		_lob_abort     		CODE           	1040	0000	92
		_lob_manual    		CODE           	1DEDC	0000	366
		_lob_test      		CODE           	1A526	0000	1160
		_limit_method  		CODE           	124A	0000	74

D:\Users\MichaelZarling\Documents\Lobster\cs020_sw\Master_v1p226p34-XC8\EL04\main\lobmain.c estimated size: 9662

C:\Program Files (x86)\Microchip\xc8\v1.33\sources\pic18\plib\Timers\t3open.c
		_OpenTimer3    		CODE           	1CB2	0000	38

C:\Program Files (x86)\Microchip\xc8\v1.33\sources\pic18\plib\Timers\t3open.c estimated size: 38

C:\Program Files (x86)\Microchip\xc8\v1.33\sources\pic18\plib\PWM\pw4open.c
		_OpenPWM4      		CODE           	1DF4	0000	34

C:\Program Files (x86)\Microchip\xc8\v1.33\sources\pic18\plib\PWM\pw4open.c estimated size: 34

C:\Program Files (x86)\Microchip\xc8\v1.33\sources\pic18\plib\USART\u2open.c
		_Open2USART    		CODE           	0DFC	0000	102

C:\Program Files (x86)\Microchip\xc8\v1.33\sources\pic18\plib\USART\u2open.c estimated size: 102

C:\Program Files (x86)\Microchip\xc8\v1.33\sources\pic18\plib\PWM\pw4setdc.c
		_SetDCPWM4     		CODE           	18BE	0000	58

C:\Program Files (x86)\Microchip\xc8\v1.33\sources\pic18\plib\PWM\pw4setdc.c estimated size: 58

D:\Users\MichaelZarling\Documents\Lobster\cs020_sw\Master_v1p226p34-XC8\EL04\main\ringbuf.c
		_rbuf_ins      		CODE           	02FA	0000	130
		_rbuf_init     		CODE           	1A88	0000	40

D:\Users\MichaelZarling\Documents\Lobster\cs020_sw\Master_v1p226p34-XC8\EL04\main\ringbuf.c estimated size: 170

C:\Program Files (x86)\Microchip\xc8\v1.33\sources\pic18\plib\CCP\cp1close.c
		_CloseCapture1 		CODE           	2010	0000	6

C:\Program Files (x86)\Microchip\xc8\v1.33\sources\pic18\plib\CCP\cp1close.c estimated size: 6

D:\Users\MichaelZarling\Documents\Lobster\cs020_sw\Master_v1p226p34-XC8\EL04\main\keypad.c
		_check_keypad  		CODE           	1F2C6	0000	264

D:\Users\MichaelZarling\Documents\Lobster\cs020_sw\Master_v1p226p34-XC8\EL04\main\keypad.c estimated size: 264

C:\Program Files (x86)\Microchip\xc8\v1.33\sources\pic18\plib\PWM\pw3setdc.c
		_SetDCPWM3     		CODE           	18F8	0000	58

C:\Program Files (x86)\Microchip\xc8\v1.33\sources\pic18\plib\PWM\pw3setdc.c estimated size: 58

C:\Program Files (x86)\Microchip\xc8\v1.33\sources\common\lwmod.c
		___lwmod       		CODE           	1842	0000	62

C:\Program Files (x86)\Microchip\xc8\v1.33\sources\common\lwmod.c estimated size: 62

D:\Users\MichaelZarling\Documents\Lobster\cs020_sw\Master_v1p226p34-XC8\EL04\main\lobeeprom.c
		_save_prog     		CODE           	001C	0000	156
		_load_prog     		CODE           	1C0F8	0000	554

D:\Users\MichaelZarling\Documents\Lobster\cs020_sw\Master_v1p226p34-XC8\EL04\main\lobeeprom.c estimated size: 710

C:\Program Files (x86)\Microchip\xc8\v1.33\sources\common\awmod.c
		___awmod       		CODE           	0946	0000	132

C:\Program Files (x86)\Microchip\xc8\v1.33\sources\common\awmod.c estimated size: 132

C:\Program Files (x86)\Microchip\xc8\v1.33\sources\common\Umul16.c
		___wmul        		CODE           	1CFE	0000	38

C:\Program Files (x86)\Microchip\xc8\v1.33\sources\common\Umul16.c estimated size: 38

C:\Program Files (x86)\Microchip\xc8\v1.33\sources\pic18\plib\Timers\t1close.c
		_CloseTimer1   		CODE           	1FFE	0000	6

C:\Program Files (x86)\Microchip\xc8\v1.33\sources\pic18\plib\Timers\t1close.c estimated size: 6

C:\Program Files (x86)\Microchip\xc8\v1.33\sources\pic18\plib\PWM\pw3close.c
		_ClosePWM3     		CODE           	202A	0000	4

C:\Program Files (x86)\Microchip\xc8\v1.33\sources\pic18\plib\PWM\pw3close.c estimated size: 4

C:\Program Files (x86)\Microchip\xc8\v1.33\sources\pic18\plib\PWM\pw3open.c
		_OpenPWM3      		CODE           	1E36	0000	32

C:\Program Files (x86)\Microchip\xc8\v1.33\sources\pic18\plib\PWM\pw3open.c estimated size: 32

C:\Program Files (x86)\Microchip\xc8\v1.33\sources\common\rand.c
		_srand         		CODE           	1F10	0000	22
		_rand          		CODE           	0ACE	0000	128

C:\Program Files (x86)\Microchip\xc8\v1.33\sources\common\rand.c estimated size: 150

D:\Users\MichaelZarling\Documents\Lobster\cs020_sw\Master_v1p226p34-XC8\EL04\main\loberr.c
		_lob_error     		CODE           	1D200	0000	428

D:\Users\MichaelZarling\Documents\Lobster\cs020_sw\Master_v1p226p34-XC8\EL04\main\loberr.c estimated size: 428

D:\Users\MichaelZarling\Documents\Lobster\cs020_sw\Master_v1p226p34-XC8\EL04\main\..\xlcd\putsxlcd.c
		_putsXLCD      		CODE           	1B5A	0000	46

D:\Users\MichaelZarling\Documents\Lobster\cs020_sw\Master_v1p226p34-XC8\EL04\main\..\xlcd\putsxlcd.c estimated size: 46

C:\Program Files (x86)\Microchip\xc8\v1.33\sources\pic18\plib\CCP\cp1read.c
		_ReadCapture1  		CODE           	1F8C	0000	20

C:\Program Files (x86)\Microchip\xc8\v1.33\sources\pic18\plib\CCP\cp1read.c estimated size: 20

C:\Program Files (x86)\Microchip\xc8\v1.33\sources\pic18\plib\USART\u2read.c
		_Read2USART    		CODE           	1D6C	0000	34

C:\Program Files (x86)\Microchip\xc8\v1.33\sources\pic18\plib\USART\u2read.c estimated size: 34

C:\Program Files (x86)\Microchip\xc8\v1.33\sources\pic18\plib\Timers\t4close.c
		_CloseTimer4   		CODE           	1FF2	0000	6

C:\Program Files (x86)\Microchip\xc8\v1.33\sources\pic18\plib\Timers\t4close.c estimated size: 6

C:\Program Files (x86)\Microchip\xc8\v1.33\sources\pic18\d1ktcyx.c
		_Delay1KTCYx   		CODE           	1F64	0000	20

C:\Program Files (x86)\Microchip\xc8\v1.33\sources\pic18\d1ktcyx.c estimated size: 20

C:\Program Files (x86)\Microchip\xc8\v1.33\sources\pic18\plib\SPI\spi1open.c
		_OpenSPI1      		CODE           	1526	0000	72

C:\Program Files (x86)\Microchip\xc8\v1.33\sources\pic18\plib\SPI\spi1open.c estimated size: 72

C:\Program Files (x86)\Microchip\xc8\v1.33\sources\pic18\plib\Timers\t1open.c
		_OpenTimer1    		CODE           	1CD8	0000	38

C:\Program Files (x86)\Microchip\xc8\v1.33\sources\pic18\plib\Timers\t1open.c estimated size: 38

C:\Program Files (x86)\Microchip\xc8\v1.33\sources\common\Umul32.c
		___lmul        		CODE           	11FE	0000	76

C:\Program Files (x86)\Microchip\xc8\v1.33\sources\common\Umul32.c estimated size: 76

C:\Program Files (x86)\Microchip\xc8\v1.33\sources\pic18\plib\Timers\t0close.c
		_CloseTimer0   		CODE           	2004	0000	6

C:\Program Files (x86)\Microchip\xc8\v1.33\sources\pic18\plib\Timers\t0close.c estimated size: 6

C:\Program Files (x86)\Microchip\xc8\v1.33\sources\pic18\plib\USART\u1open.c
		_Open1USART    		CODE           	0F84	0000	96

C:\Program Files (x86)\Microchip\xc8\v1.33\sources\pic18\plib\USART\u1open.c estimated size: 96

C:\Program Files (x86)\Microchip\xc8\v1.33\sources\pic18\plib\USART\u2puts.c
		_puts2USART    		CODE           	1C64	0000	40

C:\Program Files (x86)\Microchip\xc8\v1.33\sources\pic18\plib\USART\u2puts.c estimated size: 40

C:\Program Files (x86)\Microchip\xc8\v1.33\sources\pic18\d10ktcyx.c
		_Delay10KTCYx  		CODE           	1E92	0000	26

C:\Program Files (x86)\Microchip\xc8\v1.33\sources\pic18\d10ktcyx.c estimated size: 26

C:\Program Files (x86)\Microchip\xc8\v1.33\sources\common\strcat.c
		_strcat        		CODE           	10F8	0000	90

C:\Program Files (x86)\Microchip\xc8\v1.33\sources\common\strcat.c estimated size: 90

C:\Program Files (x86)\Microchip\xc8\v1.33\sources\common\lwdiv.c
		___lwdiv       		CODE           	13BC	0000	74

C:\Program Files (x86)\Microchip\xc8\v1.33\sources\common\lwdiv.c estimated size: 74

C:\Program Files (x86)\Microchip\xc8\v1.33\sources\common\awdiv.c
		___awdiv       		CODE           	04D8	0000	148

C:\Program Files (x86)\Microchip\xc8\v1.33\sources\common\awdiv.c estimated size: 148

D:\Users\MichaelZarling\Documents\Lobster\cs020_sw\Master_v1p226p34-XC8\EL04\main\..\xlcd\writdata.c
		_WriteDataXLCD 		CODE           	1E16	0000	32

D:\Users\MichaelZarling\Documents\Lobster\cs020_sw\Master_v1p226p34-XC8\EL04\main\..\xlcd\writdata.c estimated size: 32

C:\Program Files (x86)\Microchip\xc8\v1.33\sources\pic18\plib\SPI\spi1writ.c
		_WriteSPI1     		CODE           	1E74	0000	30

C:\Program Files (x86)\Microchip\xc8\v1.33\sources\pic18\plib\SPI\spi1writ.c estimated size: 30

D:\Users\MichaelZarling\Documents\Lobster\cs020_sw\Master_v1p226p34-XC8\EL04\main\..\xlcd\setddram.c
		_SetDDRamAddr  		CODE           	1D48	0000	36

D:\Users\MichaelZarling\Documents\Lobster\cs020_sw\Master_v1p226p34-XC8\EL04\main\..\xlcd\setddram.c estimated size: 36

C:\Program Files (x86)\Microchip\xc8\v1.33\sources\common\lbmod.c
		___lbmod       		CODE           	1C8C	0000	38

C:\Program Files (x86)\Microchip\xc8\v1.33\sources\common\lbmod.c estimated size: 38

C:\Program Files (x86)\Microchip\xc8\v1.33\sources\pic18\plib\CCP\cp2open.c
		_OpenCapture2  		CODE           	1640	0000	66

C:\Program Files (x86)\Microchip\xc8\v1.33\sources\pic18\plib\CCP\cp2open.c estimated size: 66

D:\Users\MichaelZarling\Documents\Lobster\cs020_sw\Master_v1p226p34-XC8\EL04\main\lobpre.c
		_lob_preset    		CODE           	1BD9E	0000	634

D:\Users\MichaelZarling\Documents\Lobster\cs020_sw\Master_v1p226p34-XC8\EL04\main\lobpre.c estimated size: 634

C:\Program Files (x86)\Microchip\xc8\v1.33\sources\common\lldiv.c
		___lldiv       		CODE           	0BC8	0000	118

C:\Program Files (x86)\Microchip\xc8\v1.33\sources\common\lldiv.c estimated size: 118

shared
		PL12           		CODE           	1396C	0000	14
		PL50           		CODE           	155DE	0000	32
		PL8            		CODE           	138F8	0000	70
		i2_SetBotPwm   		CODE           	191AE	0000	1340
		PL268          		CODE           	1F48E	0000	18
		PL458          		CODE           	19770	0000	26
		PL648          		CODE           	1B41C	0000	16
		PL496          		CODE           	13FBC	0000	16
		PL686          		CODE           	197FA	0000	16
		PL22           		CODE           	1D7B0	0000	24
		PL60           		CODE           	13AC2	0000	58
		PL178          		CODE           	13D0A	0000	82
		PL368          		CODE           	1AF32	0000	12
		PL558          		CODE           	19132	0000	12
		PL748          		CODE           	1A50A	0000	8
		PL596          		CODE           	140AC	0000	18
		PL786          		CODE           	158E8	0000	8
		_grinder_locs  		MEDIUMCONST    	EE4E	0000	60
		_attdef_locs   		MEDIUMCONST    	EDD6	0000	60
		_ready         		MEDIUMCONST    	F020	0000	9
		PL100          		CODE           	15640	0000	16
		PL32           		CODE           	155A4	0000	22
		PL70           		CODE           	1FC0C	0000	46
		PL278          		CODE           	172BA	0000	22
		PL468          		CODE           	19102	0000	26
		PL658          		CODE           	037C	0000	16
		PL696          		CODE           	1E67A	0000	16
		_accel_xlow_d  		MEDIUMCONST    	EFE3	0000	32
		_power_locs    		MEDIUMCONST    	EE8A	0000	60
		PL200          		CODE           	1D596	0000	46
		PL42           		CODE           	13A3A	0000	66
		PL80           		CODE           	1560C	0000	38
		_a2dGain       		MEDIUMCONST    	C37C	0000	7
		PL188          		CODE           	1570A	0000	16
		PL378          		CODE           	182C0	0000	34
		PL568          		CODE           	1C642	0000	10
		PL758          		CODE           	1F5C4	0000	10
		PL110          		CODE           	1C018	0000	20
		PL300          		CODE           	17AB8	0000	28
		PL14           		CODE           	1397A	0000	32
		PL52           		CODE           	13A98	0000	16
		PL90           		CODE           	13B8E	0000	14
		PL288          		CODE           	1576C	0000	22
		PL478          		CODE           	1E7CC	0000	18
		PL668          		CODE           	197EA	0000	16
		PL210          		CODE           	19072	0000	20
		PL400          		CODE           	17B06	0000	32
		PL24           		CODE           	139EE	0000	16
		PL62           		CODE           	1AEA8	0000	36
		PL198          		CODE           	1C322	0000	76
		PL388          		CODE           	13EF2	0000	16
		PL578          		CODE           	1913E	0000	18
		PL768          		CODE           	19822	0000	10
		PL120          		CODE           	1E1E2	0000	20
		PL310          		CODE           	13E56	0000	20
		PL500          		CODE           	18B0C	0000	16
		PL34           		CODE           	155BA	0000	10
		PL72           		CODE           	13B24	0000	28
		PL298          		CODE           	13E44	0000	18
		PL488          		CODE           	1DECC	0000	16
		PL678          		CODE           	038C	0000	16
		__stringdata   		MEDIUMCONST    	F02E	0000	4048
		PL220          		CODE           	19086	0000	28
		PL410          		CODE           	1C0C2	0000	16
		PL600          		CODE           	1E38A	0000	18
		PL44           		CODE           	13A7C	0000	14
		PL82           		CODE           	1FC3A	0000	52
		PL398          		CODE           	13F38	0000	32
		PL588          		CODE           	19150	0000	18
		PL778          		CODE           	1982C	0000	10
		PL130          		CODE           	1566E	0000	22
		PL320          		CODE           	13E7E	0000	16
		PL510          		CODE           	1B8E6	0000	22
		PL700          		CODE           	17B7C	0000	8
		PL16           		CODE           	1399A	0000	20
		PL54           		CODE           	13AA8	0000	14
		PL92           		CODE           	1AEDE	0000	24
		i2_ChipDeSelect		CODE           	1B26	0000	52
		PL498          		CODE           	13FCC	0000	16
		PL688          		CODE           	1D9B0	0000	16
		PL230          		CODE           	1D3C8	0000	26
		PL420          		CODE           	1685C	0000	18
		PL610          		CODE           	15854	0000	18
		_InvCmd        		MEDIUMCONST    	F003	0000	19
		PL26           		CODE           	139FE	0000	30
		PL64           		CODE           	1B386	0000	36
		i2_SetTopPwm   		CODE           	19EBC	0000	1310
		PL598          		CODE           	140BE	0000	18
		PL788          		CODE           	168CE	0000	6
		PL102          		CODE           	18A9A	0000	14
		PL140          		CODE           	15684	0000	14
		PL330          		CODE           	16808	0000	16
		PL520          		CODE           	14024	0000	24
		PL710          		CODE           	1AA6E	0000	14
		PL36           		CODE           	18A28	0000	52
		PL74           		CODE           	13B40	0000	64
		_Lefty_locs    		MEDIUMCONST    	ECE6	0000	60
		PL698          		CODE           	18356	0000	8
		_centry        		MEDIUMCONST    	BEA1	0000	588
		PL202          		CODE           	13DBC	0000	18
		PL240          		CODE           	19DB0	0000	34
		PL430          		CODE           	1686E	0000	14
		PL620          		CODE           	1CDA0	0000	16
		PL46           		CODE           	155C4	0000	26
		PL84           		CODE           	13B80	0000	14
		PL112          		CODE           	13BCA	0000	14
		PL302          		CODE           	182A4	0000	28
		PL150          		CODE           	18ABE	0000	20
		PL340          		CODE           	17AD4	0000	16
		PL530          		CODE           	19E2A	0000	22
		PL720          		CODE           	1EE5A	0000	14
		PL18           		CODE           	139AE	0000	30
		PL56           		CODE           	155FE	0000	14
		PL94           		CODE           	1B3BC	0000	24
		_test_loc      		MEDIUMCONST    	F016	0000	10
		PL212          		CODE           	1A3DA	0000	20
		PL402          		CODE           	182E2	0000	30
		PL250          		CODE           	1FE06	0000	34
		PL440          		CODE           	1AA24	0000	26
		PL630          		CODE           	168A2	0000	16
		i2_ChipSelect  		CODE           	1FFC4	0000	60
		PL28           		CODE           	13A1C	0000	14
		PL66           		CODE           	1A9AE	0000	16
		_Slicer_locs   		MEDIUMCONST    	ED5E	0000	60
		_court_locs    		MEDIUMCONST    	C3A2	0000	9000
		_rowbits       		MEDIUMCONST    	C398	0000	6
		PL122          		CODE           	15660	0000	14
		PL312          		CODE           	1C36E	0000	20
		PL160          		CODE           	156B0	0000	26
		PL502          		CODE           	1E512	0000	16
		PL350          		CODE           	1CFCA	0000	18
		PL540          		CODE           	1A490	0000	22
		PL730          		CODE           	1416A	0000	14
		PL38           		CODE           	16662	0000	40
		PL76           		CODE           	1B3AA	0000	18
		PL222          		CODE           	1FC6E	0000	16
		PL412          		CODE           	18300	0000	18
		PL260          		CODE           	1D3E2	0000	24
		PL602          		CODE           	19E70	0000	18
		PL450          		CODE           	190E8	0000	26
		PL640          		CODE           	19E92	0000	16
		PL48           		CODE           	13A8A	0000	14
		PL86           		CODE           	18A5C	0000	62
		_base_feeds_con		MEDIUMCONST    	C321	0000	32
		PL132          		CODE           	1EF16	0000	120
		PL322          		CODE           	13E8E	0000	16
		PL170          		CODE           	156E6	0000	14
		PL512          		CODE           	1AA58	0000	22
		PL360          		CODE           	190C4	0000	36
		PL702          		CODE           	158A8	0000	14
		PL550          		CODE           	1AB0	0000	14
		PL740          		CODE           	14194	0000	14
		PL58           		CODE           	13AB6	0000	12
		PL96           		CODE           	1AEF6	0000	24
		_xtbl          		MEDIUMCONST    	E6CA	0000	384
		PL232          		CODE           	1E06A	0000	14
		PL422          		CODE           	18312	0000	18
		PL270          		CODE           	1D5C4	0000	10
		PL612          		CODE           	15866	0000	18
		PL460          		CODE           	1A460	0000	26
		PL650          		CODE           	14110	0000	16
		PL68           		CODE           	13AFC	0000	40
		PL104          		CODE           	13B9C	0000	18
		PL142          		CODE           	1C056	0000	30
		PL332          		CODE           	1A42C	0000	24
		PL180          		CODE           	156F4	0000	22
		PL522          		CODE           	17B4A	0000	24
		PL370          		CODE           	1AA16	0000	14
		PL712          		CODE           	158C4	0000	12
		PL560          		CODE           	1CB4A	0000	14
		PL750          		CODE           	1C65A	0000	8
		PL78           		CODE           	1AECC	0000	18
		i2_SetDCPWM3   		CODE           	19A6	0000	58
		i2_SetDCPWM4   		CODE           	196C	0000	58
		i2_SetDCPWM5   		CODE           	19E0	0000	58
		PL204          		CODE           	13DCE	0000	26
		PL242          		CODE           	1FFA2	0000	34
		PL432          		CODE           	1A444	0000	28
		PL280          		CODE           	1BD66	0000	22
		PL622          		CODE           	19174	0000	16
		PL470          		CODE           	1E1F6	0000	14
		PL660          		CODE           	15878	0000	16
		PL88           		CODE           	15632	0000	14
		_accel_med     		MEDIUMCONST    	EFA3	0000	32
		PL114          		CODE           	13BD8	0000	146
		PL304          		CODE           	172D0	0000	14
		PL152          		CODE           	156A0	0000	16
		PL342          		CODE           	13EAA	0000	18
		PL190          		CODE           	13D6C	0000	16
		PL532          		CODE           	1C0D2	0000	22
		PL380          		CODE           	1C620	0000	34
		PL722          		CODE           	1DB70	0000	14
		PL570          		CODE           	1A4A6	0000	18
		PL760          		CODE           	1A512	0000	10
		PL98           		CODE           	1B3D4	0000	24
		_accel_med_d   		MEDIUMCONST    	EFC3	0000	32
		PL214          		CODE           	1D3AC	0000	28
		PL404          		CODE           	1C0A6	0000	28
		PL252          		CODE           	13DE8	0000	10
		PL442          		CODE           	0C98	0000	26
		PL290          		CODE           	13E1C	0000	22
		PL632          		CODE           	1C8F6	0000	16
		PL480          		CODE           	1CFDC	0000	16
		PL670          		CODE           	14120	0000	16
		_speed_trans   		MEDIUMCONST    	C354	0000	16
		PL124          		CODE           	1C02C	0000	42
		PL314          		CODE           	13E6A	0000	20
		PL162          		CODE           	1BD42	0000	36
		PL504          		CODE           	1F4BA	0000	24
		PL352          		CODE           	1F1AA	0000	18
		PL542          		CODE           	1911C	0000	22
		PL390          		CODE           	13F02	0000	16
		PL732          		CODE           	14178	0000	14
		PL580          		CODE           	15846	0000	14
		PL770          		CODE           	141BA	0000	10
		_lobmach       		MEDIUMCONST    	C383	0000	7
		__initializatio		CODE           	1EA98	0000	324
		PL224          		CODE           	19D94	0000	28
		PL414          		CODE           	157D8	0000	18
		PL262          		CODE           	1574C	0000	32
		PL604          		CODE           	16890	0000	18
		PL452          		CODE           	157EA	0000	26
		PL642          		CODE           	1A4CA	0000	16
		PL490          		CODE           	13FA8	0000	20
		PL680          		CODE           	1A4FA	0000	16
		_allcourt_locs 		MEDIUMCONST    	ED9A	0000	60
		_foreonly_locs 		MEDIUMCONST    	EE12	0000	60
		PL134          		CODE           	166EE	0000	44
		PL324          		CODE           	1C096	0000	16
		PL172          		CODE           	1678A	0000	16
		PL514          		CODE           	13FDC	0000	24
		PL362          		CODE           	1AF0E	0000	36
		PL704          		CODE           	1D1E8	0000	14
		PL552          		CODE           	1406A	0000	16
		PL742          		CODE           	141A2	0000	14
		PL590          		CODE           	1E7DE	0000	18
		PL780          		CODE           	168C2	0000	6
		_lobmach_EL04  		MEDIUMCONST    	C38A	0000	7
		i2_SetFeedPwm  		CODE           	1F7DA	0000	250
		PL234          		CODE           	1971A	0000	34
		PL424          		CODE           	17B38	0000	18
		PL272          		CODE           	18286	0000	30
		PL614          		CODE           	00CE	0000	10
		PL462          		CODE           	0DE2	0000	26
		PL652          		CODE           	1A4DA	0000	16
		PL690          		CODE           	00D8	0000	16
		PL106          		CODE           	13BAE	0000	28
		PL144          		CODE           	16758	0000	28
		PL334          		CODE           	1579C	0000	24
		PL182          		CODE           	18AD2	0000	44
		PL524          		CODE           	1403C	0000	24
		PL372          		CODE           	13EE4	0000	14
		PL714          		CODE           	1414E	0000	14
		PL562          		CODE           	17B62	0000	14
		PL752          		CODE           	141B0	0000	10
		PL790          		CODE           	168D4	0000	8
		_sweepcols     		MEDIUMCONST    	C364	0000	14
		PL206          		CODE           	196EA	0000	20
		PL244          		CODE           	1571A	0000	16
		PL434          		CODE           	1D5CE	0000	28
		PL282          		CODE           	13E14	0000	8
		PL624          		CODE           	197DA	0000	16
		PL472          		CODE           	1AA3E	0000	26
		PL662          		CODE           	19184	0000	16
		PL116          		CODE           	15650	0000	16
		PL306          		CODE           	1A9E6	0000	48
		PL154          		CODE           	16774	0000	22
		PL344          		CODE           	157B4	0000	18
		PL192          		CODE           	1E04A	0000	32
		PL534          		CODE           	1978A	0000	22
		PL382          		CODE           	17AE4	0000	34
		PL724          		CODE           	1415C	0000	14
		PL572          		CODE           	1E378	0000	18
		PL762          		CODE           	191A4	0000	10
		_preset_mask   		MEDIUMCONST    	C2D1	0000	48
		_line_start    		MEDIUMCONST    	C39E	0000	4
		_Moonballer_loc		MEDIUMCONST    	ED22	0000	60
		PL216          		CODE           	196FE	0000	28
		PL406          		CODE           	13F58	0000	18
		PL254          		CODE           	13DF2	0000	20
		PL444          		CODE           	17332	0000	26
		PL292          		CODE           	167E4	0000	18
		PL634          		CODE           	140E0	0000	16
		PL482          		CODE           	13F88	0000	16
		PL672          		CODE           	19EA2	0000	16
		PL126          		CODE           	166BC	0000	28
		PL316          		CODE           	15782	0000	26
		PL164          		CODE           	156CA	0000	28
		PL506          		CODE           	1EA6E	0000	24
		PL354          		CODE           	1D98A	0000	38
		PL544          		CODE           	197A0	0000	22
		PL392          		CODE           	1DEB4	0000	24
		PL734          		CODE           	14186	0000	14
		PL582          		CODE           	14088	0000	18
		PL772          		CODE           	1F5CE	0000	8
		_preparm1base  		MEDIUMCONST    	C341	0000	19
		PL226          		CODE           	1E7BC	0000	16
		PL416          		CODE           	17B26	0000	18
		PL264          		CODE           	1728C	0000	32
		PL606          		CODE           	1D1D6	0000	18
		PL454          		CODE           	1CD86	0000	26
		PL644          		CODE           	140F0	0000	16
		PL492          		CODE           	1581E	0000	16
		PL682          		CODE           	1D7C8	0000	16
		_CurSense      		MEDIUMCONST    	C275	0000	92
		_transition_loc		MEDIUMCONST    	EEC6	0000	60
		PL136          		CODE           	13C6A	0000	44
		PL326          		CODE           	1C39C	0000	14
		PL174          		CODE           	1A9BE	0000	16
		PL516          		CODE           	13FF4	0000	24
		PL364          		CODE           	1B3EC	0000	36
		PL706          		CODE           	158B6	0000	14
		PL554          		CODE           	1E66C	0000	14
		PL744          		CODE           	1B42C	0000	14
		PL592          		CODE           	1A4B8	0000	18
		PL782          		CODE           	1A51C	0000	10
		i2_WriteSPI1   		CODE           	1F26	0000	22
		PL236          		CODE           	1A40A	0000	34
		PL426          		CODE           	13F6A	0000	16
		PL274          		CODE           	17A9A	0000	30
		PL616          		CODE           	17B70	0000	12
		PL464          		CODE           	15804	0000	26
		PL654          		CODE           	1A4EA	0000	16
		PL692          		CODE           	1980A	0000	16
		_xtbl_EL04     		MEDIUMCONST    	E84A	0000	384
		_flash_header  		MEDIUMCONST    	EF02	0000	33
		PL108          		CODE           	1D1A0	0000	28
		PL146          		CODE           	18AA8	0000	22
		PL336          		CODE           	1973C	0000	24
		PL184          		CODE           	1727C	0000	16
		PL526          		CODE           	18324	0000	24
		PL374          		CODE           	18AFE	0000	14
		PL716          		CODE           	1FB8A	0000	14
		PL564          		CODE           	1EA86	0000	18
		PL754          		CODE           	1D1F6	0000	10
		PL792          		CODE           	168DC	0000	6
		_accel_low     		MEDIUMCONST    	EF63	0000	32
		_xtbl_EL05LE2  		MEDIUMCONST    	E9CA	0000	384
		PL208          		CODE           	19D80	0000	20
		PL246          		CODE           	1FED4	0000	34
		PL436          		CODE           	1BD90	0000	14
		PL284          		CODE           	167B8	0000	22
		PL626          		CODE           	140D0	0000	16
		PL474          		CODE           	1E204	0000	14
		PL664          		CODE           	1AF3E	0000	16
		_key2loc       		MEDIUMCONST    	C0ED	0000	288
		_base_feeds    		MEDIUMCONST    	C301	0000	32
		_space         		MEDIUMCONST    	F02C	0000	2
		_accel_low_d   		MEDIUMCONST    	EF83	0000	32
		PL118          		CODE           	1669A	0000	34
		PL308          		CODE           	172DE	0000	48
		PL156          		CODE           	1C074	0000	34
		PL346          		CODE           	1C3AA	0000	18
		PL194          		CODE           	13D7C	0000	22
		PL536          		CODE           	1A47A	0000	22
		PL384          		CODE           	1683C	0000	14
		PL726          		CODE           	1C64C	0000	14
		PL574          		CODE           	19E4C	0000	18
		PL764          		CODE           	168B2	0000	10
		_Beginner_locs 		MEDIUMCONST    	EC6E	0000	60
		PL218          		CODE           	1A3EE	0000	28
		PL408          		CODE           	157C6	0000	18
		PL256          		CODE           	13E06	0000	14
		PL446          		CODE           	1F4A0	0000	26
		PL294          		CODE           	13E32	0000	18
		PL636          		CODE           	19E82	0000	16
		PL484          		CODE           	13F98	0000	16
		PL674          		CODE           	1DB60	0000	16
		_home_loc      		MEDIUMCONST    	C372	0000	10
		_lobmach_EL05LE		MEDIUMCONST    	C391	0000	7
		PL128          		CODE           	166D8	0000	22
		PL318          		CODE           	1C382	0000	26
		PL166          		CODE           	17260	0000	28
		PL508          		CODE           	1582E	0000	24
		PL356          		CODE           	1730E	0000	36
		PL546          		CODE           	19E40	0000	12
		PL394          		CODE           	13F12	0000	18
		PL736          		CODE           	1F0A2	0000	14
		PL584          		CODE           	1409A	0000	18
		PL774          		CODE           	141C4	0000	10
		_Intermediate_l		MEDIUMCONST    	ECAA	0000	60
		_base_speeds   		MEDIUMCONST    	EBF2	0000	64
		PL228          		CODE           	1D1BC	0000	26
		PL418          		CODE           	1684A	0000	18
		PL266          		CODE           	172AC	0000	14
		PL608          		CODE           	197C8	0000	18
		PL456          		CODE           	1734C	0000	26
		PL646          		CODE           	14100	0000	16
		PL494          		CODE           	1C8E6	0000	16
		PL684          		CODE           	15898	0000	16
		i2_PgaGain     		CODE           	1802	0000	64
		PL138          		CODE           	1671A	0000	62
		PL328          		CODE           	13E9E	0000	12
		PL176          		CODE           	1CB3C	0000	14
		PL518          		CODE           	1400C	0000	24
		PL366          		CODE           	19DD2	0000	36
		PL708          		CODE           	14140	0000	14
		PL556          		CODE           	1407A	0000	14
		PL746          		CODE           	1B8FC	0000	14
		PL594          		CODE           	19162	0000	18
		PL784          		CODE           	168C8	0000	6
		PL2            		CODE           	1382E	0000	64
		PL238          		CODE           	190A2	0000	34
		PL428          		CODE           	19754	0000	28
		PL276          		CODE           	1679A	0000	30
		PL618          		CODE           	1834A	0000	12
		PL466          		CODE           	17366	0000	26
		PL656          		CODE           	1CB58	0000	16
		PL694          		CODE           	19194	0000	16
		_pre_rand      		MEDIUMCONST    	C20D	0000	104
		PL148          		CODE           	15692	0000	14
		PL338          		CODE           	1BD7C	0000	20
		PL186          		CODE           	13D5C	0000	16
		PL528          		CODE           	14054	0000	22
		PL376          		CODE           	1B410	0000	12
		PL718          		CODE           	1AF4E	0000	14
		PL566          		CODE           	1687C	0000	20
		PL756          		CODE           	1981A	0000	8
		_FeedStartTbl  		MEDIUMCONST    	EB4A	0000	168
		PL10           		CODE           	1393E	0000	46
		PL4            		CODE           	1386E	0000	66
		i2_DelayFor18TC		CODE           	1EE0	0000	26
		PL248          		CODE           	1572A	0000	34
		PL438          		CODE           	19DF6	0000	26
		PL286          		CODE           	167CE	0000	22
		PL628          		CODE           	1C0E8	0000	16
		PL476          		CODE           	13F7A	0000	14
		PL666          		CODE           	15888	0000	16
		_Advanced_locs 		MEDIUMCONST    	EC32	0000	60
		PL20           		CODE           	139CC	0000	34
		PL158          		CODE           	13C96	0000	68
		PL348          		CODE           	13EBC	0000	40
		PL196          		CODE           	13D92	0000	42
		PL538          		CODE           	00B8	0000	22
		PL386          		CODE           	1E4FA	0000	24
		PL728          		CODE           	158D0	0000	10
		PL576          		CODE           	197B6	0000	18
		PL766          		CODE           	19EB2	0000	10
		PL30           		CODE           	13A2A	0000	16
		PL6            		CODE           	138B0	0000	72
		PL258          		CODE           	1A9CE	0000	24
		PL448          		CODE           	19E10	0000	26
		PL296          		CODE           	167F6	0000	18
		PL638          		CODE           	1F6C8	0000	16
		PL486          		CODE           	17380	0000	16
		PL676          		CODE           	14130	0000	16
		PL40           		CODE           	1668A	0000	16
		_accel_hi      		MEDIUMCONST    	EF23	0000	32
		PL168          		CODE           	13CDA	0000	48
		PL358          		CODE           	16818	0000	36
		PL548          		CODE           	1833C	0000	14
		PL396          		CODE           	13F24	0000	20
		PL738          		CODE           	158DA	0000	14
		PL586          		CODE           	19E5E	0000	18
		PL776          		CODE           	168BC	0000	6
		_crlf          		MEDIUMCONST    	F029	0000	3
		_accel_hi_d    		MEDIUMCONST    	EF43	0000	32

shared estimated size: 29247

C:\Program Files (x86)\Microchip\xc8\v1.33\sources\pic18\plib\Timers\t4open.c
		_OpenTimer4    		CODE           	1EC6	0000	26

C:\Program Files (x86)\Microchip\xc8\v1.33\sources\pic18\plib\Timers\t4open.c estimated size: 26

C:\Program Files (x86)\Microchip\xc8\v1.33\sources\common\aldiv.c
		___aldiv       		CODE           	1F9C8	0000	232

C:\Program Files (x86)\Microchip\xc8\v1.33\sources\common\aldiv.c estimated size: 232

C:\Program Files (x86)\Microchip\xc8\v1.33\sources\pic18\plib\Timers\t3close.c
		_CloseTimer3   		CODE           	1FF8	0000	6

C:\Program Files (x86)\Microchip\xc8\v1.33\sources\pic18\plib\Timers\t3close.c estimated size: 6

C:\Program Files (x86)\Microchip\xc8\v1.33\sources\common\strlen.c
		_strlen        		CODE           	15FA	0000	70

C:\Program Files (x86)\Microchip\xc8\v1.33\sources\common\strlen.c estimated size: 70

D:\Users\MichaelZarling\Documents\Lobster\cs020_sw\Master_v1p226p34-XC8\EL04\main\lobparm.c
		_lob_parm      		CODE           	158F0	0000	3442
		_is_available  		CODE           	156E	0000	70
		_isLocAvail    		CODE           	09CA	0000	130
		_chartoa       		CODE           	1E212	0000	358
		_getLocAvail   		CODE           	05FE	0000	142

D:\Users\MichaelZarling\Documents\Lobster\cs020_sw\Master_v1p226p34-XC8\EL04\main\lobparm.c estimated size: 4142

C:\Program Files (x86)\Microchip\xc8\v1.33\sources\common\itoa.c
		_itoa          		CODE           	15B4	0000	70
		_utoa          		CODE           	039C	0000	160

C:\Program Files (x86)\Microchip\xc8\v1.33\sources\common\itoa.c estimated size: 230

C:\Program Files (x86)\Microchip\xc8\v1.33\sources\pic18\plib\Timers\t0open.c
		_OpenTimer0    		CODE           	1E56	0000	30

C:\Program Files (x86)\Microchip\xc8\v1.33\sources\pic18\plib\Timers\t0open.c estimated size: 30

C:\Program Files (x86)\Microchip\xc8\v1.33\sources\common\strchr.c
		_strchr        		CODE           	1BB6	0000	46

C:\Program Files (x86)\Microchip\xc8\v1.33\sources\common\strchr.c estimated size: 46

D:\Users\MichaelZarling\Documents\Lobster\cs020_sw\Master_v1p226p34-XC8\EL04\main\loblcd.c
		_set_intensity 		CODE           	1D24	0000	36
		_clear_lcd     		CODE           	144E	0000	72

D:\Users\MichaelZarling\Documents\Lobster\cs020_sw\Master_v1p226p34-XC8\EL04\main\loblcd.c estimated size: 108

C:\Program Files (x86)\Microchip\xc8\v1.33\sources\common\strcpy.c
		_strcpy        		CODE           	1294	0000	74

C:\Program Files (x86)\Microchip\xc8\v1.33\sources\common\strcpy.c estimated size: 74

C:\Program Files (x86)\Microchip\xc8\v1.33\sources\pic18\plib\PWM\pw5close.c
		_ClosePWM5     		CODE           	2022	0000	4

C:\Program Files (x86)\Microchip\xc8\v1.33\sources\pic18\plib\PWM\pw5close.c estimated size: 4

C:\Program Files (x86)\Microchip\xc8\v1.33\sources\common\memset.c
		_memset        		CODE           	1BE4	0000	46

C:\Program Files (x86)\Microchip\xc8\v1.33\sources\common\memset.c estimated size: 46

D:\Users\MichaelZarling\Documents\Lobster\cs020_sw\Master_v1p226p34-XC8\EL04\main\diag.c
		_dumphex       		CODE           	2038	0000	2
		_atoh          		CODE           	1F6D8	0000	258
		_dumplong      		CODE           	203A	0000	2
		_dumpaddr      		CODE           	2036	0000	2
		_dumpshort     		CODE           	2034	0000	2
		_putrsDIAG     		CODE           	203C	0000	2

D:\Users\MichaelZarling\Documents\Lobster\cs020_sw\Master_v1p226p34-XC8\EL04\main\diag.c estimated size: 268

C:\Program Files (x86)\Microchip\xc8\v1.33\sources\pic18\plib\SPI\spi1read.c
		_ReadSPI1      		CODE           	1FDC	0000	14

C:\Program Files (x86)\Microchip\xc8\v1.33\sources\pic18\plib\SPI\spi1read.c estimated size: 14

D:\Users\MichaelZarling\Documents\Lobster\cs020_sw\Master_v1p226p34-XC8\EL04\main\..\xlcd\putrxlcd.c
		_putrsXLCD     		CODE           	0E62	0000	98

D:\Users\MichaelZarling\Documents\Lobster\cs020_sw\Master_v1p226p34-XC8\EL04\main\..\xlcd\putrxlcd.c estimated size: 98

C:\Program Files (x86)\Microchip\xc8\v1.33\sources\pic18\plib\PWM\pw5setdc.c
		_SetDCPWM5     		CODE           	1932	0000	58

C:\Program Files (x86)\Microchip\xc8\v1.33\sources\pic18\plib\PWM\pw5setdc.c estimated size: 58

C:\Program Files (x86)\Microchip\xc8\v1.33\sources\pic18\plib\USART\u1read.c
		_Read1USART    		CODE           	1FA0	0000	16

C:\Program Files (x86)\Microchip\xc8\v1.33\sources\pic18\plib\USART\u1read.c estimated size: 16

C:\Program Files (x86)\Microchip\xc8\v1.33\sources\common\strncpy.c
		_strncpy       		CODE           	0F24	0000	96

C:\Program Files (x86)\Microchip\xc8\v1.33\sources\common\strncpy.c estimated size: 96

C:\Program Files (x86)\Microchip\xc8\v1.33\sources\pic18\plib\CCP\cp2close.c
		_CloseCapture2 		CODE           	200A	0000	6

C:\Program Files (x86)\Microchip\xc8\v1.33\sources\pic18\plib\CCP\cp2close.c estimated size: 6

D:\Users\MichaelZarling\Documents\Lobster\cs020_sw\Master_v1p226p34-XC8\EL04\main\master.c
		_SetTopPwm     		CODE           	19836	0000	1354
		_pwm_debug     		CODE           	0B4E	0000	122
		_nofunc        		CODE           	2032	0000	2
		_SetFeedImm    		CODE           	109C	0000	92
		_SetFeedPwm    		CODE           	1F0B0	0000	250
		_SetFeedRate   		CODE           	14DE	0000	72
		_StartFeedCont 		CODE           	1EF8E	0000	276
		_ForceShot     		CODE           	1FEA	0000	8
		_ee_test       		CODE           	1C3BC	0000	612
		_StopFeedMtr   		CODE           	1742	0000	64
		_ChipReserve   		CODE           	1FB0	0000	16
		_stop_all      		CODE           	1A1A	0000	56
		_StartFeedAtSpd		CODE           	1FAB0	0000	218
		_StopBotMtr    		CODE           	1782	0000	64
		_CalcLimits    		CODE           	1F3CE	0000	192
		_feed_diag     		CODE           	1E7F0	0000	344
		_DisableSlaveSP		CODE           	068C	0000	142
		_StopBidirMtrs 		CODE           	1FCE	0000	14
		_CurShot_diag  		CODE           	1D3FA	0000	412
		_debounced_remo		CODE           	08BE	0000	136
		_main          		CODE           	10000	0000	14382
		_DelayFor18TCY 		CODE           	1EAC	0000	26
		_BuildCmd      		CODE           	1E522	0000	330
		_MtrResponse   		CODE           	1FC0	0000	14
		_slavecmd      		CODE           	1E948	0000	294
		_CalcBotPwm    		CODE           	17390	0000	1802
		_UpdBotPer     		CODE           	1880	0000	62
		_EnableSlaveSPI		CODE           	1ABE	0000	52
		_SEEWrite      		CODE           	1F4D2	0000	242
		_poweroff      		CODE           	071A	0000	140
		_debounce_power		CODE           	1152	0000	86
		_Setup         		CODE           	1B90A	0000	1080
		_SpeedInRange  		CODE           	1372	0000	74
		_StartBot      		CODE           	1AA7C	0000	1068
		_dumpmem       		CODE           	07A6	0000	140
		_GetMtrResponse		CODE           	0A4C	0000	130
		_ChipSelect    		CODE           	17C2	0000	64
		_FeedMtrDone   		CODE           	0D96	0000	76
		_NxtShot_diag  		CODE           	019E	0000	176
		_StopTopMtr    		CODE           	1702	0000	64
		_abort_shot    		CODE           	1B88	0000	46
		_isr           		CODE           	0008	0000	126242
		_exec_diag     		CODE           	1E68A	0000	306
		_UpdTopPer     		CODE           	1D9C0	0000	416
		_SlowFeedMtr   		CODE           	0C3E	0000	90
		_SlvTimeOut    		CODE           	2016	0000	6
		_StartTop      		CODE           	1AF5C	0000	1066
		_sweep_diag    		CODE           	16C2	0000	64
		_FeedPwm2Sec   		CODE           	043C	0000	156
		_DelayPORXLCD  		CODE           	201C	0000	6
		_debounced_remo		CODE           	1328	0000	74
		_setmem        		CODE           	1C12	0000	42
		_a2d_diag      		CODE           	1CB68	0000	542
		_bot_diag      		CODE           	024E	0000	172
		_RemoteSaveDril		CODE           	1D5EA	0000	454
		_CalcTopPwm    		CODE           	17B84	0000	1794
		_top_diag      		CODE           	1D7D8	0000	434
		_kbdiag        		CODE           	1F8D4	0000	244
		_SvcShots      		CODE           	168E2	0000	2430
		_ChipDeSelect  		CODE           	1AF2	0000	52
		_CheckBattery  		CODE           	11A8	0000	86
		_SetBotPwm     		CODE           	18B1C	0000	1366
		_parse_next    		CODE           	0832	0000	140
		_PgaGain       		CODE           	12DE	0000	74
		_BatteryAverage		CODE           	1CFEC	0000	436
		_chip_select   		CODE           	1F3C	0000	20
		_spitest       		CODE           	00E8	0000	182
		_elev_diag     		CODE           	1682	0000	64
		_StartFeed     		CODE           	1ED2A	0000	304
		_StartSweepRand		CODE           	0CB2	0000	114
		_StartElevRando		CODE           	0D24	0000	114
		_SEERead       		CODE           	1496	0000	72

D:\Users\MichaelZarling\Documents\Lobster\cs020_sw\Master_v1p226p34-XC8\EL04\main\master.c estimated size: 162356

C:\Program Files (x86)\Microchip\xc8\v1.33\sources\pic18\plib\PWM\pw5open.c
		_OpenPWM5      		CODE           	1DD2	0000	34

C:\Program Files (x86)\Microchip\xc8\v1.33\sources\pic18\plib\PWM\pw5open.c estimated size: 34

C:\Program Files (x86)\Microchip\xc8\v1.33\sources\pic18\plib\CCP\cp2read.c
		_ReadCapture2  		CODE           	1F78	0000	20

C:\Program Files (x86)\Microchip\xc8\v1.33\sources\pic18\plib\CCP\cp2read.c estimated size: 20

D:\Users\MichaelZarling\Documents\Lobster\cs020_sw\Master_v1p226p34-XC8\EL04\main\lobprog.c
		_show_prog1    		CODE           	1C906	0000	566
		_show_prog2    		CODE           	1F1BC	0000	266
		_show_prog3    		CODE           	1C662	0000	644
		_lob_program   		CODE           	1835E	0000	1738
		_show_progRPM  		CODE           	1E078	0000	362
		_get60mph0spin 		CODE           	1FB98	0000	116

D:\Users\MichaelZarling\Documents\Lobster\cs020_sw\Master_v1p226p34-XC8\EL04\main\lobprog.c estimated size: 3692

D:\Users\MichaelZarling\Documents\Lobster\cs020_sw\Master_v1p226p34-XC8\EL04\main\..\xlcd\openxlcd.c
		_OpenXLCD      		CODE           	056C	0000	146

D:\Users\MichaelZarling\Documents\Lobster\cs020_sw\Master_v1p226p34-XC8\EL04\main\..\xlcd\openxlcd.c estimated size: 146

C:\Program Files (x86)\Microchip\xc8\v1.33\sources\common\lbdiv.c
		___lbdiv       		CODE           	1A52	0000	54

C:\Program Files (x86)\Microchip\xc8\v1.33\sources\common\lbdiv.c estimated size: 54

D:\Users\MichaelZarling\Documents\Lobster\cs020_sw\Master_v1p226p34-XC8\EL04\main\varinit.c
		_varinit       		CODE           	1DB7E	0000	432

D:\Users\MichaelZarling\Documents\Lobster\cs020_sw\Master_v1p226p34-XC8\EL04\main\varinit.c estimated size: 432

D:\Users\MichaelZarling\Documents\Lobster\cs020_sw\Master_v1p226p34-XC8\EL04\main\..\xlcd\wcmdxlcd.c
		_WriteCmdXLCD  		CODE           	1D8E	0000	34

D:\Users\MichaelZarling\Documents\Lobster\cs020_sw\Master_v1p226p34-XC8\EL04\main\..\xlcd\wcmdxlcd.c estimated size: 34

